(lp0
(lp1
(I0
I1
I1
I1
I1
I0
tp2
a(I1
I0
I0
I1
I1
I1
tp3
a(I1
I0
I0
I1
I1
I1
tp4
a(I1
I1
I1
I0
I0
I1
tp5
a(I1
I1
I1
I0
I0
I1
tp6
a(I0
I1
I1
I1
I1
I0
tp7
aa(lp8
g2
ag3
ag4
a(I1
I1
I1
I0
I1
I0
tp9
a(I1
I1
I1
I1
I0
I0
tp10
a(I0
I1
I1
I0
I0
I2
tp11
aa(lp12
g2
ag3
a(I1
I0
I0
I0
I1
I2
tp13
a(I1
I1
I0
I0
I1
I1
tp14
a(I1
I1
I1
I1
I0
I0
tp15
a(I0
I1
I2
I1
I0
I0
tp16
aa(lp17
g2
ag3
ag13
a(I1
I1
I0
I2
I0
I0
tp18
a(I1
I1
I1
I0
I0
I1
tp19
a(I0
I1
I2
I0
I1
I0
tp20
aa(lp21
g2
ag3
a(I1
I0
I0
I0
I2
I1
tp22
a(I1
I1
I0
I0
I0
I2
tp23
a(I1
I1
I2
I0
I0
I0
tp24
a(I0
I1
I1
I2
I0
I0
tp25
aa(lp26
g2
ag3
ag22
a(I1
I1
I0
I2
I0
I0
tp27
a(I1
I1
I2
I0
I0
I0
tp28
a(I0
I1
I1
I0
I0
I2
tp29
aa(lp30
g2
ag3
a(I1
I0
I2
I0
I0
I1
tp31
a(I1
I1
I0
I0
I2
I0
tp32
a(I1
I1
I0
I2
I0
I0
tp33
a(I0
I1
I1
I0
I0
I2
tp34
aa(lp35
g2
ag3
ag31
a(I1
I1
I0
I2
I0
I0
tp36
a(I1
I1
I0
I0
I2
I0
tp37
a(I0
I1
I1
I0
I0
I2
tp38
aa(lp39
g2
ag3
a(I1
I0
I2
I0
I1
I0
tp40
a(I1
I1
I0
I0
I1
I1
tp41
a(I1
I1
I1
I1
I0
I0
tp42
a(I0
I1
I0
I1
I0
I2
tp43
aa(lp44
g2
ag3
ag40
a(I1
I1
I0
I2
I0
I0
tp45
a(I1
I1
I1
I0
I0
I1
tp46
a(I0
I1
I0
I0
I1
I2
tp47
aa(lp48
g2
ag3
a(I1
I0
I0
I0
I0
I3
tp49
a(I1
I1
I0
I0
I2
I0
tp50
a(I1
I1
I0
I2
I0
I0
tp51
a(I0
I1
I3
I0
I0
I0
tp52
aa(lp53
g2
ag3
ag49
a(I1
I1
I0
I2
I0
I0
tp54
a(I1
I1
I0
I0
I2
I0
tp55
a(I0
I1
I3
I0
I0
I0
tp56
aa(lp57
g2
a(I1
I0
I1
I1
I1
I0
tp58
a(I1
I1
I0
I1
I1
I0
tp59
a(I1
I1
I1
I0
I1
I0
tp60
a(I1
I1
I1
I1
I0
I0
tp61
a(I0
I0
I0
I0
I0
I4
tp62
aa(lp63
g2
ag58
a(I1
I1
I0
I0
I0
I2
tp64
a(I1
I1
I0
I0
I0
I2
tp65
a(I1
I1
I0
I0
I2
I0
tp66
a(I0
I0
I2
I2
I0
I0
tp67
aa(lp68
g2
ag58
ag64
a(I1
I1
I0
I0
I2
I0
tp69
a(I1
I1
I0
I2
I0
I0
tp70
a(I0
I0
I2
I0
I0
I2
tp71
aa(lp72
g2
ag58
ag64
a(I1
I1
I0
I2
I0
I0
tp73
a(I1
I1
I0
I0
I2
I0
tp74
a(I0
I0
I2
I0
I0
I2
tp75
aa(lp76
g2
ag58
a(I1
I1
I0
I0
I2
I0
tp77
a(I1
I1
I0
I2
I0
I0
tp78
a(I1
I1
I2
I0
I0
I0
tp79
a(I0
I0
I0
I0
I0
I4
tp80
aa(lp81
g2
ag58
a(I1
I1
I2
I0
I0
I0
tp82
a(I1
I1
I0
I2
I0
I0
tp83
a(I1
I1
I0
I0
I2
I0
tp84
a(I0
I0
I0
I0
I0
I4
tp85
aa(lp86
g2
a(I1
I0
I0
I0
I1
I2
tp87
a(I1
I0
I0
I1
I0
I2
tp88
a(I1
I0
I1
I0
I2
I0
tp89
a(I1
I1
I0
I2
I0
I0
tp90
a(I0
I2
I2
I0
I0
I0
tp91
aa(lp92
g2
ag87
ag88
a(I1
I0
I1
I2
I0
I0
tp93
a(I1
I1
I0
I0
I2
I0
tp94
a(I0
I2
I2
I0
I0
I0
tp95
aa(lp96
g2
ag87
a(I1
I0
I0
I0
I2
I1
tp97
a(I1
I0
I0
I2
I0
I1
tp98
a(I1
I1
I2
I0
I0
I0
tp99
a(I0
I2
I1
I1
I0
I0
tp100
aa(lp101
g2
ag87
a(I1
I0
I0
I2
I0
I1
tp102
a(I1
I0
I2
I0
I0
I1
tp103
a(I1
I1
I0
I0
I2
I0
tp104
a(I0
I2
I1
I1
I0
I0
tp105
aa(lp106
g2
ag87
a(I1
I0
I2
I0
I0
I1
tp107
a(I1
I0
I0
I2
I0
I1
tp108
a(I1
I1
I0
I0
I2
I0
tp109
a(I0
I2
I1
I1
I0
I0
tp110
aa(lp111
g2
ag87
a(I1
I0
I0
I1
I2
I0
tp112
a(I1
I0
I1
I2
I0
I0
tp113
a(I1
I1
I2
I0
I0
I0
tp114
a(I0
I2
I0
I0
I0
I2
tp115
aa(lp116
g2
ag87
a(I1
I0
I2
I1
I0
I0
tp117
a(I1
I0
I1
I2
I0
I0
tp118
a(I1
I1
I0
I0
I0
I2
tp119
a(I0
I2
I0
I0
I2
I0
tp120
aa(lp121
g2
ag87
ag117
ag118
a(I1
I1
I0
I0
I2
I0
tp122
a(I0
I2
I0
I0
I0
I2
tp123
aa(lp124
g2
ag87
a(I1
I0
I0
I3
I0
I0
tp125
a(I1
I0
I3
I0
I0
I0
tp126
a(I1
I1
I0
I0
I0
I2
tp127
a(I0
I2
I0
I0
I2
I0
tp128
aa(lp129
g2
ag87
ag125
ag126
a(I1
I1
I0
I0
I2
I0
tp130
a(I0
I2
I0
I0
I0
I2
tp131
aa(lp132
g2
a(I1
I0
I0
I0
I2
I1
tp133
a(I1
I0
I0
I2
I0
I1
tp134
a(I1
I0
I2
I0
I0
I1
tp135
a(I1
I2
I0
I0
I0
I1
tp136
a(I0
I1
I1
I1
I1
I0
tp137
aa(lp138
g2
ag133
ag134
a(I1
I0
I2
I0
I1
I0
tp139
a(I1
I2
I0
I1
I0
I0
tp140
a(I0
I1
I1
I0
I0
I2
tp141
aa(lp142
g2
ag133
a(I1
I0
I2
I0
I0
I1
tp143
a(I1
I0
I0
I2
I0
I1
tp144
a(I1
I2
I0
I0
I0
I1
tp145
a(I0
I1
I1
I1
I1
I0
tp146
aa(lp147
g2
ag133
ag143
a(I1
I0
I0
I2
I1
I0
tp148
a(I1
I2
I0
I1
I0
I0
tp149
a(I0
I1
I1
I0
I0
I2
tp150
aa(lp151
g2
ag133
a(I1
I0
I2
I0
I1
I0
tp152
a(I1
I0
I0
I0
I0
I3
tp153
a(I1
I2
I1
I0
I0
I0
tp154
a(I0
I1
I0
I3
I0
I0
tp155
aa(lp156
g2
ag133
a(I1
I0
I2
I1
I0
I0
tp157
a(I1
I0
I1
I2
I0
I0
tp158
a(I1
I2
I0
I0
I0
I1
tp159
a(I0
I1
I0
I0
I1
I2
tp160
aa(lp161
g2
ag133
a(I1
I0
I0
I3
I0
I0
tp162
a(I1
I0
I3
I0
I0
I0
tp163
a(I1
I2
I0
I0
I0
I1
tp164
a(I0
I1
I0
I0
I1
I2
tp165
aa(lp166
g2
a(I1
I2
I0
I0
I0
I1
tp167
a(I1
I0
I2
I0
I0
I1
tp168
a(I1
I0
I0
I2
I0
I1
tp169
a(I1
I0
I0
I0
I2
I1
tp170
a(I0
I1
I1
I1
I1
I0
tp171
aa(lp172
g2
ag167
ag168
a(I1
I0
I0
I2
I1
I0
tp173
a(I1
I0
I0
I1
I2
I0
tp174
a(I0
I1
I1
I0
I0
I2
tp175
aa(lp176
g2
ag167
ag168
a(I1
I0
I0
I0
I3
I0
tp177
a(I1
I0
I0
I3
I0
I0
tp178
a(I0
I1
I1
I0
I0
I2
tp179
aa(lp180
g2
ag167
a(I1
I0
I2
I0
I1
I0
tp181
a(I1
I0
I0
I0
I0
I3
tp182
a(I1
I0
I1
I0
I2
I0
tp183
a(I0
I1
I0
I3
I0
I0
tp184
aa(lp185
g2
ag167
a(I1
I0
I0
I0
I0
I3
tp186
a(I1
I0
I0
I0
I3
I0
tp187
a(I1
I0
I0
I3
I0
I0
tp188
a(I0
I1
I3
I0
I0
I0
tp189
aa(lp190
g2
a(I1
I0
I0
I1
I2
I0
tp191
a(I1
I0
I0
I2
I1
I0
tp192
a(I1
I1
I2
I0
I0
I0
tp193
a(I1
I2
I1
I0
I0
I0
tp194
a(I0
I0
I0
I0
I0
I4
tp195
aa(lp196
g2
ag191
a(I1
I0
I2
I0
I1
I0
tp197
a(I1
I1
I0
I2
I0
I0
tp198
a(I1
I2
I1
I0
I0
I0
tp199
a(I0
I0
I0
I0
I0
I4
tp200
aa(lp201
g2
a(I1
I2
I0
I0
I1
I0
tp202
a(I1
I0
I2
I1
I0
I0
tp203
a(I1
I0
I1
I2
I0
I0
tp204
a(I1
I1
I0
I0
I2
I0
tp205
a(I0
I0
I0
I0
I0
I4
tp206
aa(lp207
g2
ag202
a(I1
I0
I0
I3
I0
I0
tp208
a(I1
I0
I3
I0
I0
I0
tp209
a(I1
I1
I0
I0
I2
I0
tp210
a(I0
I0
I0
I0
I0
I4
tp211
aa(lp212
g2
a(I1
I0
I0
I0
I3
I0
tp213
a(I1
I0
I0
I3
I0
I0
tp214
a(I1
I0
I3
I0
I0
I0
tp215
a(I1
I3
I0
I0
I0
I0
tp216
a(I0
I0
I0
I0
I0
I4
tp217
aa(lp218
(I0
I0
I1
I2
I1
I0
tp219
a(I0
I0
I0
I1
I1
I2
tp220
a(I1
I0
I0
I1
I0
I2
tp221
a(I2
I1
I1
I0
I0
I0
tp222
a(I1
I1
I0
I0
I2
I0
tp223
a(I0
I2
I2
I0
I0
I0
tp224
aa(lp225
g219
ag220
a(I1
I0
I2
I0
I0
I1
tp226
a(I2
I1
I0
I0
I0
I1
tp227
a(I1
I1
I0
I0
I2
I0
tp228
a(I0
I2
I1
I1
I0
I0
tp229
aa(lp230
g219
ag220
a(I1
I0
I2
I1
I0
I0
tp231
a(I2
I1
I1
I0
I0
I0
tp232
a(I1
I1
I0
I0
I0
I2
tp233
a(I0
I2
I0
I0
I2
I0
tp234
aa(lp235
g219
ag220
ag231
ag232
a(I1
I1
I0
I0
I2
I0
tp236
a(I0
I2
I0
I0
I0
I2
tp237
aa(lp238
g219
a(I0
I0
I1
I0
I1
I2
tp239
a(I1
I1
I0
I0
I0
I2
tp240
a(I2
I0
I0
I0
I2
I0
tp241
a(I1
I1
I0
I2
I0
I0
tp242
a(I0
I2
I2
I0
I0
I0
tp243
aa(lp244
g219
ag239
ag240
a(I2
I0
I0
I2
I0
I0
tp245
a(I1
I1
I0
I0
I2
I0
tp246
a(I0
I2
I2
I0
I0
I0
tp247
aa(lp248
g219
ag239
a(I1
I1
I0
I0
I2
I0
tp249
a(I2
I0
I0
I0
I0
I2
tp250
a(I1
I1
I2
I0
I0
I0
tp251
a(I0
I2
I0
I2
I0
I0
tp252
aa(lp253
g219
ag239
a(I1
I1
I2
I0
I0
I0
tp254
a(I2
I0
I0
I0
I0
I2
tp255
a(I1
I1
I0
I0
I2
I0
tp256
a(I0
I2
I0
I2
I0
I0
tp257
aa(lp258
g219
ag239
ag254
a(I2
I0
I0
I2
I0
I0
tp259
a(I1
I1
I0
I0
I2
I0
tp260
a(I0
I2
I0
I0
I0
I2
tp261
aa(lp262
g219
a(I0
I0
I0
I1
I2
I1
tp263
a(I1
I0
I2
I0
I0
I1
tp264
a(I2
I1
I0
I0
I1
I0
tp265
a(I1
I2
I0
I1
I0
I0
tp266
a(I0
I1
I1
I0
I0
I2
tp267
aa(lp268
g219
ag263
a(I1
I0
I2
I0
I1
I0
tp269
a(I2
I1
I0
I0
I0
I1
tp270
a(I1
I2
I1
I0
I0
I0
tp271
a(I0
I1
I0
I1
I0
I2
tp272
aa(lp273
g219
ag263
a(I1
I0
I2
I1
I0
I0
tp274
a(I2
I1
I1
I0
I0
I0
tp275
a(I1
I2
I0
I0
I0
I1
tp276
a(I0
I1
I0
I0
I1
I2
tp277
aa(lp278
g219
ag263
a(I1
I0
I0
I0
I0
I3
tp279
a(I2
I1
I0
I0
I1
I0
tp280
a(I1
I2
I0
I1
I0
I0
tp281
a(I0
I1
I3
I0
I0
I0
tp282
aa(lp283
g219
a(I0
I0
I0
I2
I1
I1
tp284
a(I1
I0
I2
I0
I0
I1
tp285
a(I2
I2
I0
I0
I0
I0
tp286
a(I1
I1
I0
I0
I2
I0
tp287
a(I0
I1
I1
I0
I0
I2
tp288
aa(lp289
g219
ag284
a(I1
I0
I0
I0
I0
I3
tp290
a(I2
I2
I0
I0
I0
I0
tp291
a(I1
I1
I0
I0
I2
I0
tp292
a(I0
I1
I3
I0
I0
I0
tp293
aa(lp294
g219
a(I0
I2
I0
I0
I1
I1
tp295
a(I1
I0
I0
I0
I2
I1
tp296
a(I2
I0
I0
I2
I0
I0
tp297
a(I1
I1
I2
I0
I0
I0
tp298
a(I0
I1
I1
I0
I0
I2
tp299
aa(lp300
g219
ag295
a(I1
I0
I0
I2
I0
I1
tp301
a(I2
I0
I2
I0
I0
I0
tp302
a(I1
I1
I0
I0
I2
I0
tp303
a(I0
I1
I1
I0
I0
I2
tp304
aa(lp305
g219
ag295
a(I1
I0
I2
I0
I0
I1
tp306
a(I2
I0
I0
I2
I0
I0
tp307
a(I1
I1
I0
I0
I2
I0
tp308
a(I0
I1
I1
I0
I0
I2
tp309
aa(lp310
g219
ag295
a(I1
I0
I2
I1
I0
I0
tp311
a(I2
I0
I1
I0
I0
I1
tp312
a(I1
I1
I0
I0
I2
I0
tp313
a(I0
I1
I0
I1
I0
I2
tp314
aa(lp315
g219
ag295
a(I1
I0
I0
I0
I0
I3
tp316
a(I2
I0
I0
I0
I2
I0
tp317
a(I1
I1
I0
I2
I0
I0
tp318
a(I0
I1
I3
I0
I0
I0
tp319
aa(lp320
g219
ag295
ag316
a(I2
I0
I0
I2
I0
I0
tp321
a(I1
I1
I0
I0
I2
I0
tp322
a(I0
I1
I3
I0
I0
I0
tp323
aa(lp324
g219
a(I0
I2
I0
I1
I0
I1
tp325
a(I1
I0
I2
I0
I1
I0
tp326
a(I2
I1
I0
I0
I0
I1
tp327
a(I1
I0
I1
I0
I2
I0
tp328
a(I0
I1
I0
I1
I0
I2
tp329
aa(lp330
g219
ag325
a(I1
I0
I2
I1
I0
I0
tp331
a(I2
I1
I1
I0
I0
I0
tp332
a(I1
I0
I0
I0
I0
I3
tp333
a(I0
I1
I0
I0
I3
I0
tp334
aa(lp335
g219
ag325
a(I1
I0
I0
I0
I3
I0
tp336
a(I2
I1
I0
I0
I0
I1
tp337
a(I1
I0
I3
I0
I0
I0
tp338
a(I0
I1
I0
I1
I0
I2
tp339
aa(lp340
g219
a(I0
I0
I1
I1
I2
I0
tp341
a(I1
I1
I2
I0
I0
I0
tp342
a(I2
I1
I0
I0
I0
I1
tp343
a(I1
I2
I0
I0
I0
I1
tp344
a(I0
I0
I0
I1
I1
I2
tp345
aa(lp346
g219
ag341
ag342
a(I2
I1
I0
I0
I1
I0
tp347
a(I1
I2
I0
I1
I0
I0
tp348
a(I0
I0
I0
I0
I0
I4
tp349
aa(lp350
g219
a(I0
I0
I1
I2
I1
I0
tp351
a(I1
I1
I0
I0
I0
I2
tp352
a(I2
I2
I0
I0
I0
I0
tp353
a(I1
I1
I0
I0
I0
I2
tp354
a(I0
I0
I2
I0
I2
I0
tp355
aa(lp356
g219
ag351
ag352
ag353
a(I1
I1
I0
I0
I2
I0
tp357
a(I0
I0
I2
I0
I0
I2
tp358
aa(lp359
g219
ag351
a(I1
I1
I0
I0
I2
I0
tp360
a(I2
I2
I0
I0
I0
I0
tp361
a(I1
I1
I2
I0
I0
I0
tp362
a(I0
I0
I0
I0
I0
I4
tp363
aa(lp364
g219
ag351
a(I1
I1
I2
I0
I0
I0
tp365
a(I2
I2
I0
I0
I0
I0
tp366
a(I1
I1
I0
I0
I2
I0
tp367
a(I0
I0
I0
I0
I0
I4
tp368
aa(lp369
g219
a(I0
I2
I0
I1
I1
I0
tp370
a(I1
I0
I2
I0
I0
I1
tp371
a(I2
I1
I0
I0
I0
I1
tp372
a(I1
I1
I0
I0
I2
I0
tp373
a(I0
I0
I1
I1
I0
I2
tp374
aa(lp375
g219
ag370
a(I1
I0
I2
I1
I0
I0
tp376
a(I2
I1
I1
I0
I0
I0
tp377
a(I1
I1
I0
I0
I2
I0
tp378
a(I0
I0
I0
I0
I0
I4
tp379
aa(lp380
g219
ag370
a(I1
I0
I0
I0
I0
I3
tp381
a(I2
I1
I0
I0
I0
I1
tp382
a(I1
I1
I0
I0
I2
I0
tp383
a(I0
I0
I3
I1
I0
I0
tp384
aa(lp385
g219
a(I0
I2
I1
I0
I1
I0
tp386
a(I1
I1
I0
I0
I0
I2
tp387
a(I2
I0
I0
I0
I0
I2
tp388
a(I1
I1
I0
I0
I2
I0
tp389
a(I0
I0
I2
I2
I0
I0
tp390
aa(lp391
g219
ag386
ag387
a(I2
I0
I0
I2
I0
I0
tp392
a(I1
I1
I0
I0
I2
I0
tp393
a(I0
I0
I2
I0
I0
I2
tp394
aa(lp395
g219
ag386
a(I1
I1
I0
I0
I2
I0
tp396
a(I2
I0
I0
I0
I0
I2
tp397
a(I1
I1
I2
I0
I0
I0
tp398
a(I0
I0
I0
I2
I0
I2
tp399
aa(lp400
g219
ag386
ag396
a(I2
I0
I0
I2
I0
I0
tp401
a(I1
I1
I2
I0
I0
I0
tp402
a(I0
I0
I0
I0
I0
I4
tp403
aa(lp404
g219
ag386
a(I1
I1
I0
I2
I0
I0
tp405
a(I2
I0
I2
I0
I0
I0
tp406
a(I1
I1
I0
I0
I2
I0
tp407
a(I0
I0
I0
I0
I0
I4
tp408
aa(lp409
g219
ag386
a(I1
I1
I2
I0
I0
I0
tp410
a(I2
I0
I0
I0
I0
I2
tp411
a(I1
I1
I0
I0
I2
I0
tp412
a(I0
I0
I0
I2
I0
I2
tp413
aa(lp414
g219
ag386
ag410
a(I2
I0
I0
I2
I0
I0
tp415
a(I1
I1
I0
I0
I2
I0
tp416
a(I0
I0
I0
I0
I0
I4
tp417
aa(lp418
g219
a(I0
I0
I0
I0
I1
I3
tp419
a(I1
I0
I0
I0
I2
I1
tp420
a(I2
I0
I0
I2
I0
I0
tp421
a(I1
I1
I2
I0
I0
I0
tp422
a(I0
I3
I1
I0
I0
I0
tp423
aa(lp424
g219
ag419
a(I1
I0
I2
I0
I0
I1
tp425
a(I2
I0
I0
I2
I0
I0
tp426
a(I1
I1
I0
I0
I2
I0
tp427
a(I0
I3
I1
I0
I0
I0
tp428
aa(lp429
g219
a(I0
I0
I0
I1
I0
I3
tp430
a(I1
I0
I0
I0
I3
I0
tp431
a(I2
I1
I0
I0
I0
I1
tp432
a(I1
I0
I3
I0
I0
I0
tp433
a(I0
I3
I0
I1
I0
I0
tp434
aa(lp435
g219
a(I0
I0
I0
I0
I3
I1
tp436
a(I1
I0
I0
I0
I0
I3
tp437
a(I2
I0
I0
I2
I0
I0
tp438
a(I1
I3
I0
I0
I0
I0
tp439
a(I0
I1
I3
I0
I0
I0
tp440
aa(lp441
g219
a(I0
I0
I0
I1
I3
I0
tp442
a(I1
I0
I2
I1
I0
I0
tp443
a(I2
I1
I1
I0
I0
I0
tp444
a(I1
I3
I0
I0
I0
I0
tp445
a(I0
I0
I0
I0
I0
I4
tp446
aa(lp447
g219
ag442
a(I1
I0
I0
I0
I0
I3
tp448
a(I2
I1
I0
I0
I0
I1
tp449
a(I1
I3
I0
I0
I0
I0
tp450
a(I0
I0
I3
I1
I0
I0
tp451
aa(lp452
g219
a(I0
I0
I1
I0
I3
I0
tp453
a(I1
I1
I0
I0
I0
I2
tp454
a(I2
I0
I0
I0
I0
I2
tp455
a(I1
I3
I0
I0
I0
I0
tp456
a(I0
I0
I2
I2
I0
I0
tp457
aa(lp458
g219
ag453
ag454
a(I2
I0
I0
I2
I0
I0
tp459
a(I1
I3
I0
I0
I0
I0
tp460
a(I0
I0
I2
I0
I0
I2
tp461
aa(lp462
g219
ag453
a(I1
I1
I0
I2
I0
I0
tp463
a(I2
I0
I2
I0
I0
I0
tp464
a(I1
I3
I0
I0
I0
I0
tp465
a(I0
I0
I0
I0
I0
I4
tp466
aa(lp467
g219
ag453
a(I1
I1
I2
I0
I0
I0
tp468
a(I2
I0
I0
I0
I0
I2
tp469
a(I1
I3
I0
I0
I0
I0
tp470
a(I0
I0
I0
I2
I0
I2
tp471
aa(lp472
g219
ag453
ag468
a(I2
I0
I0
I2
I0
I0
tp473
a(I1
I3
I0
I0
I0
I0
tp474
a(I0
I0
I0
I0
I0
I4
tp475
aa(lp476
g219
a(I0
I0
I0
I0
I2
I2
tp477
a(I1
I0
I0
I0
I1
I2
tp478
a(I2
I0
I0
I2
I0
I0
tp479
a(I1
I2
I1
I0
I0
I0
tp480
a(I0
I2
I2
I0
I0
I0
tp481
aa(lp482
g219
ag477
a(I1
I0
I0
I2
I1
I0
tp483
a(I2
I0
I2
I0
I0
I0
tp484
a(I1
I2
I1
I0
I0
I0
tp485
a(I0
I2
I0
I0
I0
I2
tp486
aa(lp487
g219
ag477
a(I1
I0
I2
I0
I1
I0
tp488
a(I2
I0
I0
I0
I0
I2
tp489
a(I1
I2
I1
I0
I0
I0
tp490
a(I0
I2
I0
I2
I0
I0
tp491
aa(lp492
g219
ag477
ag488
a(I2
I0
I0
I2
I0
I0
tp493
a(I1
I2
I1
I0
I0
I0
tp494
a(I0
I2
I0
I0
I0
I2
tp495
aa(lp496
g219
a(I0
I0
I0
I2
I0
I2
tp497
a(I1
I0
I2
I0
I1
I0
tp498
a(I2
I2
I0
I0
I0
I0
tp499
a(I1
I0
I1
I0
I2
I0
tp500
a(I0
I2
I0
I0
I0
I2
tp501
aa(lp502
g219
ag497
a(I1
I0
I0
I0
I3
I0
tp503
a(I2
I2
I0
I0
I0
I0
tp504
a(I1
I0
I3
I0
I0
I0
tp505
a(I0
I2
I0
I0
I0
I2
tp506
aa(lp507
g219
a(I0
I2
I0
I0
I0
I2
tp508
a(I1
I0
I0
I2
I1
I0
tp509
a(I2
I0
I2
I0
I0
I0
tp510
a(I1
I0
I1
I0
I2
I0
tp511
a(I0
I2
I0
I0
I0
I2
tp512
aa(lp513
g219
ag508
a(I1
I0
I2
I0
I1
I0
tp514
a(I2
I0
I0
I2
I0
I0
tp515
a(I1
I0
I1
I0
I2
I0
tp516
a(I0
I2
I0
I0
I0
I2
tp517
aa(lp518
g219
ag508
a(I1
I0
I2
I1
I0
I0
tp519
a(I2
I0
I1
I0
I1
I0
tp520
a(I1
I0
I0
I1
I2
I0
tp521
a(I0
I2
I0
I0
I0
I2
tp522
aa(lp523
g219
ag508
a(I1
I0
I0
I0
I3
I0
tp524
a(I2
I0
I0
I2
I0
I0
tp525
a(I1
I0
I3
I0
I0
I0
tp526
a(I0
I2
I0
I0
I0
I2
tp527
aa(lp528
g219
a(I0
I0
I0
I2
I2
I0
tp529
a(I1
I0
I2
I0
I1
I0
tp530
a(I2
I2
I0
I0
I0
I0
tp531
a(I1
I2
I1
I0
I0
I0
tp532
a(I0
I0
I0
I0
I0
I4
tp533
aa(lp534
g219
a(I0
I0
I2
I0
I2
I0
tp535
a(I1
I2
I0
I0
I1
I0
tp536
a(I2
I0
I0
I2
I0
I0
tp537
a(I1
I2
I1
I0
I0
I0
tp538
a(I0
I0
I0
I0
I0
I4
tp539
aa(lp540
g219
a(I0
I2
I0
I0
I2
I0
tp541
a(I1
I0
I2
I0
I1
I0
tp542
a(I2
I0
I0
I2
I0
I0
tp543
a(I1
I2
I1
I0
I0
I0
tp544
a(I0
I0
I0
I0
I0
I4
tp545
aa(lp546
g219
a(I0
I2
I0
I2
I0
I0
tp547
a(I1
I0
I2
I0
I1
I0
tp548
a(I2
I2
I0
I0
I0
I0
tp549
a(I1
I0
I1
I0
I2
I0
tp550
a(I0
I0
I0
I0
I0
I4
tp551
aa(lp552
g219
ag547
a(I1
I0
I0
I0
I3
I0
tp553
a(I2
I2
I0
I0
I0
I0
tp554
a(I1
I0
I3
I0
I0
I0
tp555
a(I0
I0
I0
I0
I0
I4
tp556
aa(lp557
g219
a(I0
I0
I0
I0
I0
I4
tp558
a(I1
I0
I0
I1
I2
I0
tp559
a(I2
I0
I1
I0
I1
I0
tp560
a(I1
I0
I2
I1
I0
I0
tp561
a(I0
I4
I0
I0
I0
I0
tp562
aa(lp563
g219
ag558
a(I1
I0
I0
I2
I1
I0
tp564
a(I2
I0
I2
I0
I0
I0
tp565
a(I1
I0
I1
I0
I2
I0
tp566
a(I0
I4
I0
I0
I0
I0
tp567
aa(lp568
g219
ag558
a(I1
I0
I2
I0
I1
I0
tp569
a(I2
I0
I0
I2
I0
I0
tp570
a(I1
I0
I1
I0
I2
I0
tp571
a(I0
I4
I0
I0
I0
I0
tp572
aa(lp573
g219
ag558
a(I1
I0
I2
I1
I0
I0
tp574
a(I2
I0
I1
I0
I1
I0
tp575
a(I1
I0
I0
I1
I2
I0
tp576
a(I0
I4
I0
I0
I0
I0
tp577
aa(lp578
g219
ag558
a(I1
I0
I0
I0
I3
I0
tp579
a(I2
I0
I0
I2
I0
I0
tp580
a(I1
I0
I3
I0
I0
I0
tp581
a(I0
I4
I0
I0
I0
I0
tp582
aa(lp583
g219
a(I0
I4
I0
I0
I0
I0
tp584
a(I1
I0
I0
I1
I2
I0
tp585
a(I2
I0
I1
I0
I1
I0
tp586
a(I1
I0
I2
I1
I0
I0
tp587
a(I0
I0
I0
I0
I0
I4
tp588
aa(lp589
g219
ag584
a(I1
I0
I0
I2
I1
I0
tp590
a(I2
I0
I2
I0
I0
I0
tp591
a(I1
I0
I1
I0
I2
I0
tp592
a(I0
I0
I0
I0
I0
I4
tp593
aa(lp594
g219
ag584
a(I1
I0
I2
I0
I1
I0
tp595
a(I2
I0
I0
I2
I0
I0
tp596
a(I1
I0
I1
I0
I2
I0
tp597
a(I0
I0
I0
I0
I0
I4
tp598
aa(lp599
g219
ag584
a(I1
I0
I2
I1
I0
I0
tp600
a(I2
I0
I1
I0
I1
I0
tp601
a(I1
I0
I0
I1
I2
I0
tp602
a(I0
I0
I0
I0
I0
I4
tp603
aa(lp604
g219
ag584
a(I1
I0
I0
I0
I3
I0
tp605
a(I2
I0
I0
I2
I0
I0
tp606
a(I1
I0
I3
I0
I0
I0
tp607
a(I0
I0
I0
I0
I0
I4
tp608
aa(lp609
(I0
I0
I0
I3
I1
I0
tp610
a(I0
I2
I0
I0
I1
I1
tp611
a(I0
I0
I2
I1
I0
I1
tp612
a(I3
I0
I1
I0
I0
I0
tp613
a(I1
I1
I0
I0
I2
I0
tp614
a(I0
I1
I1
I0
I0
I2
tp615
aa(lp616
g610
ag611
a(I0
I0
I0
I1
I0
I3
tp617
a(I3
I0
I1
I0
I0
I0
tp618
a(I1
I1
I0
I0
I2
I0
tp619
a(I0
I1
I3
I0
I0
I0
tp620
aa(lp621
g610
ag611
a(I0
I0
I4
I0
I0
I0
tp622
a(I3
I0
I0
I0
I0
I1
tp623
a(I1
I1
I0
I0
I2
I0
tp624
a(I0
I1
I0
I1
I0
I2
tp625
aa(lp626
g610
a(I0
I2
I0
I1
I0
I1
tp627
a(I0
I0
I0
I0
I1
I3
tp628
a(I3
I1
I0
I0
I0
I0
tp629
a(I1
I0
I1
I0
I2
I0
tp630
a(I0
I1
I3
I0
I0
I0
tp631
aa(lp632
g610
ag627
a(I0
I0
I4
I0
I0
I0
tp633
a(I3
I1
I0
I0
I0
I0
tp634
a(I1
I0
I0
I0
I0
I3
tp635
a(I0
I1
I0
I0
I3
I0
tp636
aa(lp637
g610
a(I0
I2
I1
I0
I0
I1
tp638
a(I0
I1
I2
I0
I0
I1
tp639
a(I3
I0
I0
I0
I1
I0
tp640
a(I1
I0
I0
I1
I2
I0
tp641
a(I0
I1
I1
I0
I0
I2
tp642
aa(lp643
g610
ag638
a(I0
I1
I0
I0
I0
I3
tp644
a(I3
I0
I0
I0
I1
I0
tp645
a(I1
I0
I0
I1
I2
I0
tp646
a(I0
I1
I3
I0
I0
I0
tp647
aa(lp648
g610
a(I0
I2
I0
I1
I1
I0
tp649
a(I0
I0
I2
I0
I0
I2
tp650
a(I3
I1
I0
I0
I0
I0
tp651
a(I1
I1
I0
I0
I2
I0
tp652
a(I0
I0
I2
I0
I0
I2
tp653
aa(lp654
g610
ag649
a(I0
I0
I0
I0
I0
I4
tp655
a(I3
I1
I0
I0
I0
I0
tp656
a(I1
I1
I0
I0
I2
I0
tp657
a(I0
I0
I4
I0
I0
I0
tp658
aa(lp659
g610
ag649
a(I0
I0
I4
I0
I0
I0
tp660
a(I3
I1
I0
I0
I0
I0
tp661
a(I1
I1
I0
I0
I2
I0
tp662
a(I0
I0
I0
I0
I0
I4
tp663
aa(lp664
g610
a(I0
I0
I0
I1
I0
I3
tp665
a(I0
I0
I0
I0
I3
I1
tp666
a(I3
I1
I0
I0
I0
I0
tp667
a(I1
I0
I3
I0
I0
I0
tp668
a(I0
I3
I1
I0
I0
I0
tp669
aa(lp670
g610
a(I0
I0
I0
I1
I3
I0
tp671
a(I0
I0
I2
I0
I0
I2
tp672
a(I3
I1
I0
I0
I0
I0
tp673
a(I1
I3
I0
I0
I0
I0
tp674
a(I0
I0
I2
I0
I0
I2
tp675
aa(lp676
g610
ag671
a(I0
I0
I0
I0
I0
I4
tp677
a(I3
I1
I0
I0
I0
I0
tp678
a(I1
I3
I0
I0
I0
I0
tp679
a(I0
I0
I4
I0
I0
I0
tp680
aa(lp681
g610
ag671
a(I0
I0
I4
I0
I0
I0
tp682
a(I3
I1
I0
I0
I0
I0
tp683
a(I1
I3
I0
I0
I0
I0
tp684
a(I0
I0
I0
I0
I0
I4
tp685
aa(lp686
g610
a(I0
I0
I2
I0
I0
I2
tp687
a(I0
I2
I0
I0
I0
I2
tp688
a(I3
I0
I0
I0
I1
I0
tp689
a(I1
I0
I0
I1
I2
I0
tp690
a(I0
I2
I2
I0
I0
I0
tp691
aa(lp692
g610
ag687
a(I0
I2
I2
I0
I0
I0
tp693
a(I3
I0
I0
I0
I1
I0
tp694
a(I1
I0
I0
I1
I2
I0
tp695
a(I0
I2
I0
I0
I0
I2
tp696
aa(lp697
g610
a(I0
I2
I0
I0
I0
I2
tp698
a(I0
I0
I4
I0
I0
I0
tp699
a(I3
I0
I0
I0
I1
I0
tp700
a(I1
I0
I0
I1
I2
I0
tp701
a(I0
I2
I0
I0
I0
I2
tp702
aa(lp703
g610
a(I0
I0
I0
I0
I0
I4
tp704
a(I0
I0
I4
I0
I0
I0
tp705
a(I3
I0
I0
I0
I1
I0
tp706
a(I1
I0
I0
I1
I2
I0
tp707
a(I0
I4
I0
I0
I0
I0
tp708
aa(lp709
g610
a(I0
I4
I0
I0
I0
I0
tp710
a(I0
I0
I4
I0
I0
I0
tp711
a(I3
I0
I0
I0
I1
I0
tp712
a(I1
I0
I0
I1
I2
I0
tp713
a(I0
I0
I0
I0
I0
I4
tp714
aa(lp715
(I0
I0
I2
I2
I0
I0
tp716
a(I0
I2
I0
I0
I1
I1
tp717
a(I2
I0
I0
I2
I0
I0
tp718
a(I2
I0
I2
I0
I0
I0
tp719
a(I0
I1
I0
I0
I2
I1
tp720
a(I0
I1
I0
I0
I1
I2
tp721
aa(lp722
g716
ag717
a(I2
I0
I2
I0
I0
I0
tp723
a(I2
I0
I0
I2
I0
I0
tp724
a(I0
I1
I0
I0
I2
I1
tp725
a(I0
I1
I0
I0
I1
I2
tp726
aa(lp727
g716
a(I0
I0
I0
I0
I2
I2
tp728
a(I2
I0
I0
I0
I0
I2
tp729
a(I2
I0
I0
I0
I2
I0
tp730
a(I0
I2
I0
I2
I0
I0
tp731
a(I0
I2
I2
I0
I0
I0
tp732
aa(lp733
g716
ag728
ag729
a(I2
I0
I0
I2
I0
I0
tp734
a(I0
I2
I0
I0
I2
I0
tp735
a(I0
I2
I2
I0
I0
I0
tp736
aa(lp737
g716
ag728
a(I2
I0
I0
I2
I0
I0
tp738
a(I2
I0
I2
I0
I0
I0
tp739
a(I0
I2
I0
I0
I0
I2
tp740
a(I0
I2
I0
I0
I2
I0
tp741
aa(lp742
g716
ag728
ag738
ag739
a(I0
I2
I0
I0
I2
I0
tp743
a(I0
I2
I0
I0
I0
I2
tp744
aa(lp745
g716
ag728
a(I2
I0
I2
I0
I0
I0
tp746
a(I2
I0
I0
I2
I0
I0
tp747
a(I0
I2
I0
I0
I2
I0
tp748
a(I0
I2
I0
I0
I0
I2
tp749
aa(lp750
g716
a(I0
I0
I0
I2
I0
I2
tp751
a(I2
I0
I0
I0
I0
I2
tp752
a(I2
I2
I0
I0
I0
I0
tp753
a(I0
I0
I0
I0
I4
I0
tp754
a(I0
I2
I2
I0
I0
I0
tp755
aa(lp756
g716
ag751
a(I2
I0
I2
I0
I0
I0
tp757
a(I2
I2
I0
I0
I0
I0
tp758
a(I0
I0
I0
I0
I4
I0
tp759
a(I0
I2
I0
I0
I0
I2
tp760
aa(lp761
g716
a(I0
I2
I0
I0
I0
I2
tp762
a(I2
I0
I0
I0
I2
I0
tp763
a(I2
I0
I0
I0
I2
I0
tp764
a(I0
I0
I2
I2
I0
I0
tp765
a(I0
I2
I0
I0
I0
I2
tp766
aa(lp767
g716
ag762
ag763
a(I2
I0
I0
I2
I0
I0
tp768
a(I0
I0
I2
I0
I2
I0
tp769
a(I0
I2
I0
I0
I0
I2
tp770
aa(lp771
g716
ag762
a(I2
I0
I0
I2
I0
I0
tp772
a(I2
I0
I2
I0
I0
I0
tp773
a(I0
I0
I0
I0
I4
I0
tp774
a(I0
I2
I0
I0
I0
I2
tp775
aa(lp776
g716
ag762
a(I2
I0
I2
I0
I0
I0
tp777
a(I2
I0
I0
I2
I0
I0
tp778
a(I0
I0
I0
I0
I4
I0
tp779
a(I0
I2
I0
I0
I0
I2
tp780
aa(lp781
g716
a(I0
I0
I2
I2
I0
I0
tp782
a(I2
I2
I0
I0
I0
I0
tp783
a(I2
I2
I0
I0
I0
I0
tp784
a(I0
I0
I0
I0
I0
I4
tp785
a(I0
I0
I0
I0
I4
I0
tp786
aa(lp787
g716
ag782
ag783
ag784
a(I0
I0
I0
I0
I4
I0
tp788
a(I0
I0
I0
I0
I0
I4
tp789
aa(lp790
g716
a(I0
I2
I0
I2
I0
I0
tp791
a(I2
I0
I2
I0
I0
I0
tp792
a(I2
I2
I0
I0
I0
I0
tp793
a(I0
I0
I0
I0
I0
I4
tp794
a(I0
I0
I0
I0
I4
I0
tp795
aa(lp796
g716
ag791
ag792
ag793
a(I0
I0
I0
I0
I4
I0
tp797
a(I0
I0
I0
I0
I0
I4
tp798
aa(lp799
g716
a(I0
I0
I0
I0
I0
I4
tp800
a(I2
I0
I0
I2
I0
I0
tp801
a(I2
I0
I2
I0
I0
I0
tp802
a(I0
I0
I0
I0
I4
I0
tp803
a(I0
I4
I0
I0
I0
I0
tp804
aa(lp805
g716
ag800
a(I2
I0
I2
I0
I0
I0
tp806
a(I2
I0
I0
I2
I0
I0
tp807
a(I0
I0
I0
I0
I4
I0
tp808
a(I0
I4
I0
I0
I0
I0
tp809
aa(lp810
g716
a(I0
I4
I0
I0
I0
I0
tp811
a(I2
I0
I0
I2
I0
I0
tp812
a(I2
I0
I2
I0
I0
I0
tp813
a(I0
I0
I0
I0
I4
I0
tp814
a(I0
I0
I0
I0
I0
I4
tp815
aa(lp816
g716
ag811
a(I2
I0
I2
I0
I0
I0
tp817
a(I2
I0
I0
I2
I0
I0
tp818
a(I0
I0
I0
I0
I4
I0
tp819
a(I0
I0
I0
I0
I0
I4
tp820
aa(lp821
(I0
I0
I0
I4
I0
I0
tp822
a(I0
I2
I0
I0
I1
I1
tp823
a(I0
I0
I2
I0
I1
I1
tp824
a(I4
I0
I0
I0
I0
I0
tp825
a(I0
I1
I1
I0
I2
I0
tp826
a(I0
I1
I1
I0
I0
I2
tp827
aa(lp828
g822
ag823
a(I0
I0
I4
I0
I0
I0
tp829
a(I4
I0
I0
I0
I0
I0
tp830
a(I0
I1
I0
I0
I2
I1
tp831
a(I0
I1
I0
I0
I1
I2
tp832
aa(lp833
g822
a(I0
I2
I0
I0
I0
I2
tp834
a(I0
I0
I2
I0
I2
I0
tp835
a(I4
I0
I0
I0
I0
I0
tp836
a(I0
I0
I2
I0
I2
I0
tp837
a(I0
I2
I0
I0
I0
I2
tp838
aa(lp839
g822
ag834
a(I0
I0
I0
I0
I4
I0
tp840
a(I4
I0
I0
I0
I0
I0
tp841
a(I0
I0
I4
I0
I0
I0
tp842
a(I0
I2
I0
I0
I0
I2
tp843
aa(lp844
g822
ag834
a(I0
I0
I4
I0
I0
I0
tp845
a(I4
I0
I0
I0
I0
I0
tp846
a(I0
I0
I0
I0
I4
I0
tp847
a(I0
I2
I0
I0
I0
I2
tp848
aa(lp849
g822
a(I0
I0
I0
I0
I0
I4
tp850
a(I0
I0
I0
I0
I4
I0
tp851
a(I4
I0
I0
I0
I0
I0
tp852
a(I0
I0
I4
I0
I0
I0
tp853
a(I0
I4
I0
I0
I0
I0
tp854
aa(lp855
g822
ag850
a(I0
I0
I4
I0
I0
I0
tp856
a(I4
I0
I0
I0
I0
I0
tp857
a(I0
I0
I0
I0
I4
I0
tp858
a(I0
I4
I0
I0
I0
I0
tp859
aa(lp860
g822
a(I0
I4
I0
I0
I0
I0
tp861
a(I0
I0
I4
I0
I0
I0
tp862
a(I4
I0
I0
I0
I0
I0
tp863
a(I0
I0
I0
I0
I4
I0
tp864
a(I0
I0
I0
I0
I0
I4
tp865
aa.