(lp0
cigraph
Graph
p1
(I3
(lp2
(I0
I0
tp3
a(I1
I1
tp4
a(I2
I2
tp5
aI00
(dp6
(dp7
(dp8
tp9
Rp10
(dp11
bag1
(I3
(lp12
(I0
I0
tp13
a(I1
I1
tp14
a(I2
I2
tp15
a(I2
I2
tp16
aI00
(dp17
(dp18
(dp19
tp20
Rp21
(dp22
bag1
(I3
(lp23
(I0
I2
tp24
a(I0
I2
tp25
a(I0
I2
tp26
a(I0
I2
tp27
a(I1
I1
tp28
aI00
(dp29
(dp30
(dp31
tp32
Rp33
(dp34
bag1
(I3
(lp35
(I0
I0
tp36
a(I1
I1
tp37
a(I2
I2
tp38
a(I2
I2
tp39
a(I2
I2
tp40
aI00
(dp41
(dp42
(dp43
tp44
Rp45
(dp46
bag1
(I3
(lp47
(I0
I0
tp48
a(I1
I1
tp49
a(I1
I2
tp50
a(I1
I2
tp51
a(I2
I2
tp52
aI00
(dp53
(dp54
(dp55
tp56
Rp57
(dp58
bag1
(I3
(lp59
(I0
I0
tp60
a(I1
I1
tp61
a(I1
I1
tp62
a(I2
I2
tp63
a(I2
I2
tp64
aI00
(dp65
(dp66
(dp67
tp68
Rp69
(dp70
bag1
(I3
(lp71
(I0
I2
tp72
a(I0
I2
tp73
a(I0
I2
tp74
a(I0
I2
tp75
a(I1
I1
tp76
a(I2
I2
tp77
aI00
(dp78
(dp79
(dp80
tp81
Rp82
(dp83
bag1
(I3
(lp84
(I0
I2
tp85
a(I0
I2
tp86
a(I0
I2
tp87
a(I0
I2
tp88
a(I1
I1
tp89
a(I1
I1
tp90
aI00
(dp91
(dp92
(dp93
tp94
Rp95
(dp96
bag1
(I3
(lp97
(I0
I1
tp98
a(I0
I2
tp99
a(I0
I2
tp100
a(I0
I2
tp101
a(I1
I1
tp102
a(I1
I2
tp103
aI00
(dp104
(dp105
(dp106
tp107
Rp108
(dp109
bag1
(I3
(lp110
(I0
I1
tp111
a(I0
I1
tp112
a(I0
I2
tp113
a(I0
I2
tp114
a(I1
I2
tp115
a(I1
I2
tp116
aI00
(dp117
(dp118
(dp119
tp120
Rp121
(dp122
bag1
(I3
(lp123
(I0
I1
tp124
a(I0
I1
tp125
a(I0
I2
tp126
a(I0
I2
tp127
a(I1
I1
tp128
a(I2
I2
tp129
aI00
(dp130
(dp131
(dp132
tp133
Rp134
(dp135
bag1
(I3
(lp136
(I0
I0
tp137
a(I1
I1
tp138
a(I2
I2
tp139
a(I2
I2
tp140
a(I2
I2
tp141
a(I2
I2
tp142
aI00
(dp143
(dp144
(dp145
tp146
Rp147
(dp148
bag1
(I3
(lp149
(I0
I0
tp150
a(I1
I1
tp151
a(I1
I2
tp152
a(I1
I2
tp153
a(I2
I2
tp154
a(I2
I2
tp155
aI00
(dp156
(dp157
(dp158
tp159
Rp160
(dp161
bag1
(I3
(lp162
(I0
I0
tp163
a(I1
I1
tp164
a(I1
I1
tp165
a(I2
I2
tp166
a(I2
I2
tp167
a(I2
I2
tp168
aI00
(dp169
(dp170
(dp171
tp172
Rp173
(dp174
bag1
(I3
(lp175
(I0
I0
tp176
a(I0
I2
tp177
a(I0
I2
tp178
a(I1
I1
tp179
a(I1
I1
tp180
a(I2
I2
tp181
aI00
(dp182
(dp183
(dp184
tp185
Rp186
(dp187
bag1
(I3
(lp188
(I0
I0
tp189
a(I0
I1
tp190
a(I0
I2
tp191
a(I1
I1
tp192
a(I1
I2
tp193
a(I2
I2
tp194
aI00
(dp195
(dp196
(dp197
tp198
Rp199
(dp200
bag1
(I3
(lp201
(I0
I0
tp202
a(I0
I0
tp203
a(I1
I1
tp204
a(I1
I1
tp205
a(I2
I2
tp206
a(I2
I2
tp207
aI00
(dp208
(dp209
(dp210
tp211
Rp212
(dp213
bag1
(I3
(lp214
(I0
I2
tp215
a(I0
I2
tp216
a(I0
I2
tp217
a(I0
I2
tp218
a(I1
I1
tp219
a(I2
I2
tp220
a(I2
I2
tp221
aI00
(dp222
(dp223
(dp224
tp225
Rp226
(dp227
bag1
(I3
(lp228
(I0
I2
tp229
a(I0
I2
tp230
a(I0
I2
tp231
a(I0
I2
tp232
a(I1
I1
tp233
a(I1
I2
tp234
a(I1
I2
tp235
aI00
(dp236
(dp237
(dp238
tp239
Rp240
(dp241
bag1
(I3
(lp242
(I0
I2
tp243
a(I0
I2
tp244
a(I0
I2
tp245
a(I0
I2
tp246
a(I1
I1
tp247
a(I1
I1
tp248
a(I2
I2
tp249
aI00
(dp250
(dp251
(dp252
tp253
Rp254
(dp255
bag1
(I3
(lp256
(I0
I2
tp257
a(I0
I2
tp258
a(I0
I2
tp259
a(I0
I2
tp260
a(I1
I1
tp261
a(I1
I1
tp262
a(I1
I1
tp263
aI00
(dp264
(dp265
(dp266
tp267
Rp268
(dp269
bag1
(I3
(lp270
(I0
I2
tp271
a(I0
I2
tp272
a(I0
I2
tp273
a(I0
I2
tp274
a(I0
I2
tp275
a(I0
I2
tp276
a(I1
I1
tp277
aI00
(dp278
(dp279
(dp280
tp281
Rp282
(dp283
bag1
(I3
(lp284
(I0
I1
tp285
a(I0
I2
tp286
a(I0
I2
tp287
a(I0
I2
tp288
a(I1
I2
tp289
a(I1
I2
tp290
a(I1
I2
tp291
aI00
(dp292
(dp293
(dp294
tp295
Rp296
(dp297
bag1
(I3
(lp298
(I0
I1
tp299
a(I0
I2
tp300
a(I0
I2
tp301
a(I0
I2
tp302
a(I1
I1
tp303
a(I1
I2
tp304
a(I2
I2
tp305
aI00
(dp306
(dp307
(dp308
tp309
Rp310
(dp311
bag1
(I3
(lp312
(I0
I1
tp313
a(I0
I2
tp314
a(I0
I2
tp315
a(I0
I2
tp316
a(I1
I1
tp317
a(I1
I1
tp318
a(I1
I2
tp319
aI00
(dp320
(dp321
(dp322
tp323
Rp324
(dp325
bag1
(I3
(lp326
(I0
I1
tp327
a(I0
I1
tp328
a(I0
I2
tp329
a(I0
I2
tp330
a(I1
I2
tp331
a(I1
I2
tp332
a(I2
I2
tp333
aI00
(dp334
(dp335
(dp336
tp337
Rp338
(dp339
bag1
(I3
(lp340
(I0
I1
tp341
a(I0
I1
tp342
a(I0
I2
tp343
a(I0
I2
tp344
a(I1
I1
tp345
a(I2
I2
tp346
a(I2
I2
tp347
aI00
(dp348
(dp349
(dp350
tp351
Rp352
(dp353
bag1
(I3
(lp354
(I0
I0
tp355
a(I1
I1
tp356
a(I2
I2
tp357
a(I2
I2
tp358
a(I2
I2
tp359
a(I2
I2
tp360
a(I2
I2
tp361
aI00
(dp362
(dp363
(dp364
tp365
Rp366
(dp367
bag1
(I3
(lp368
(I0
I0
tp369
a(I1
I1
tp370
a(I1
I2
tp371
a(I1
I2
tp372
a(I2
I2
tp373
a(I2
I2
tp374
a(I2
I2
tp375
aI00
(dp376
(dp377
(dp378
tp379
Rp380
(dp381
bag1
(I3
(lp382
(I0
I0
tp383
a(I1
I1
tp384
a(I1
I2
tp385
a(I1
I2
tp386
a(I1
I2
tp387
a(I1
I2
tp388
a(I2
I2
tp389
aI00
(dp390
(dp391
(dp392
tp393
Rp394
(dp395
bag1
(I3
(lp396
(I0
I0
tp397
a(I1
I1
tp398
a(I1
I1
tp399
a(I2
I2
tp400
a(I2
I2
tp401
a(I2
I2
tp402
a(I2
I2
tp403
aI00
(dp404
(dp405
(dp406
tp407
Rp408
(dp409
bag1
(I3
(lp410
(I0
I0
tp411
a(I1
I1
tp412
a(I1
I1
tp413
a(I1
I2
tp414
a(I1
I2
tp415
a(I2
I2
tp416
a(I2
I2
tp417
aI00
(dp418
(dp419
(dp420
tp421
Rp422
(dp423
bag1
(I3
(lp424
(I0
I0
tp425
a(I1
I1
tp426
a(I1
I1
tp427
a(I1
I1
tp428
a(I2
I2
tp429
a(I2
I2
tp430
a(I2
I2
tp431
aI00
(dp432
(dp433
(dp434
tp435
Rp436
(dp437
bag1
(I3
(lp438
(I0
I0
tp439
a(I0
I2
tp440
a(I0
I2
tp441
a(I1
I1
tp442
a(I1
I2
tp443
a(I1
I2
tp444
a(I2
I2
tp445
aI00
(dp446
(dp447
(dp448
tp449
Rp450
(dp451
bag1
(I3
(lp452
(I0
I0
tp453
a(I0
I2
tp454
a(I0
I2
tp455
a(I1
I1
tp456
a(I1
I1
tp457
a(I2
I2
tp458
a(I2
I2
tp459
aI00
(dp460
(dp461
(dp462
tp463
Rp464
(dp465
bag1
(I3
(lp466
(I0
I0
tp467
a(I0
I2
tp468
a(I0
I2
tp469
a(I1
I1
tp470
a(I1
I1
tp471
a(I1
I1
tp472
a(I2
I2
tp473
aI00
(dp474
(dp475
(dp476
tp477
Rp478
(dp479
bag1
(I3
(lp480
(I0
I0
tp481
a(I0
I1
tp482
a(I0
I2
tp483
a(I1
I1
tp484
a(I1
I2
tp485
a(I2
I2
tp486
a(I2
I2
tp487
aI00
(dp488
(dp489
(dp490
tp491
Rp492
(dp493
bag1
(I3
(lp494
(I0
I0
tp495
a(I0
I0
tp496
a(I1
I1
tp497
a(I1
I1
tp498
a(I2
I2
tp499
a(I2
I2
tp500
a(I2
I2
tp501
aI00
(dp502
(dp503
(dp504
tp505
Rp506
(dp507
bag1
(I3
(lp508
(I0
I2
tp509
a(I0
I2
tp510
a(I0
I2
tp511
a(I0
I2
tp512
a(I1
I2
tp513
a(I1
I2
tp514
a(I1
I2
tp515
a(I1
I2
tp516
aI00
(dp517
(dp518
(dp519
tp520
Rp521
(dp522
bag1
(I3
(lp523
(I0
I2
tp524
a(I0
I2
tp525
a(I0
I2
tp526
a(I0
I2
tp527
a(I1
I1
tp528
a(I2
I2
tp529
a(I2
I2
tp530
a(I2
I2
tp531
aI00
(dp532
(dp533
(dp534
tp535
Rp536
(dp537
bag1
(I3
(lp538
(I0
I2
tp539
a(I0
I2
tp540
a(I0
I2
tp541
a(I0
I2
tp542
a(I1
I1
tp543
a(I1
I2
tp544
a(I1
I2
tp545
a(I2
I2
tp546
aI00
(dp547
(dp548
(dp549
tp550
Rp551
(dp552
bag1
(I3
(lp553
(I0
I2
tp554
a(I0
I2
tp555
a(I0
I2
tp556
a(I0
I2
tp557
a(I1
I1
tp558
a(I1
I1
tp559
a(I2
I2
tp560
a(I2
I2
tp561
aI00
(dp562
(dp563
(dp564
tp565
Rp566
(dp567
bag1
(I3
(lp568
(I0
I2
tp569
a(I0
I2
tp570
a(I0
I2
tp571
a(I0
I2
tp572
a(I1
I1
tp573
a(I1
I1
tp574
a(I1
I2
tp575
a(I1
I2
tp576
aI00
(dp577
(dp578
(dp579
tp580
Rp581
(dp582
bag1
(I3
(lp583
(I0
I2
tp584
a(I0
I2
tp585
a(I0
I2
tp586
a(I0
I2
tp587
a(I1
I1
tp588
a(I1
I1
tp589
a(I1
I1
tp590
a(I2
I2
tp591
aI00
(dp592
(dp593
(dp594
tp595
Rp596
(dp597
bag1
(I3
(lp598
(I0
I2
tp599
a(I0
I2
tp600
a(I0
I2
tp601
a(I0
I2
tp602
a(I1
I1
tp603
a(I1
I1
tp604
a(I1
I1
tp605
a(I1
I1
tp606
aI00
(dp607
(dp608
(dp609
tp610
Rp611
(dp612
bag1
(I3
(lp613
(I0
I2
tp614
a(I0
I2
tp615
a(I0
I2
tp616
a(I0
I2
tp617
a(I0
I2
tp618
a(I0
I2
tp619
a(I1
I1
tp620
a(I2
I2
tp621
aI00
(dp622
(dp623
(dp624
tp625
Rp626
(dp627
bag1
(I3
(lp628
(I0
I2
tp629
a(I0
I2
tp630
a(I0
I2
tp631
a(I0
I2
tp632
a(I0
I2
tp633
a(I0
I2
tp634
a(I1
I1
tp635
a(I1
I1
tp636
aI00
(dp637
(dp638
(dp639
tp640
Rp641
(dp642
bag1
(I3
(lp643
(I0
I1
tp644
a(I0
I2
tp645
a(I0
I2
tp646
a(I0
I2
tp647
a(I1
I2
tp648
a(I1
I2
tp649
a(I1
I2
tp650
a(I2
I2
tp651
aI00
(dp652
(dp653
(dp654
tp655
Rp656
(dp657
bag1
(I3
(lp658
(I0
I1
tp659
a(I0
I2
tp660
a(I0
I2
tp661
a(I0
I2
tp662
a(I1
I1
tp663
a(I1
I2
tp664
a(I2
I2
tp665
a(I2
I2
tp666
aI00
(dp667
(dp668
(dp669
tp670
Rp671
(dp672
bag1
(I3
(lp673
(I0
I1
tp674
a(I0
I2
tp675
a(I0
I2
tp676
a(I0
I2
tp677
a(I1
I1
tp678
a(I1
I2
tp679
a(I1
I2
tp680
a(I1
I2
tp681
aI00
(dp682
(dp683
(dp684
tp685
Rp686
(dp687
bag1
(I3
(lp688
(I0
I1
tp689
a(I0
I2
tp690
a(I0
I2
tp691
a(I0
I2
tp692
a(I1
I1
tp693
a(I1
I1
tp694
a(I1
I2
tp695
a(I2
I2
tp696
aI00
(dp697
(dp698
(dp699
tp700
Rp701
(dp702
bag1
(I3
(lp703
(I0
I1
tp704
a(I0
I2
tp705
a(I0
I2
tp706
a(I0
I2
tp707
a(I1
I1
tp708
a(I1
I1
tp709
a(I1
I1
tp710
a(I1
I2
tp711
aI00
(dp712
(dp713
(dp714
tp715
Rp716
(dp717
bag1
(I3
(lp718
(I0
I1
tp719
a(I0
I2
tp720
a(I0
I2
tp721
a(I0
I2
tp722
a(I0
I2
tp723
a(I0
I2
tp724
a(I1
I1
tp725
a(I1
I2
tp726
aI00
(dp727
(dp728
(dp729
tp730
Rp731
(dp732
bag1
(I3
(lp733
(I0
I1
tp734
a(I0
I1
tp735
a(I0
I2
tp736
a(I0
I2
tp737
a(I1
I2
tp738
a(I1
I2
tp739
a(I2
I2
tp740
a(I2
I2
tp741
aI00
(dp742
(dp743
(dp744
tp745
Rp746
(dp747
bag1
(I3
(lp748
(I0
I1
tp749
a(I0
I1
tp750
a(I0
I2
tp751
a(I0
I2
tp752
a(I1
I2
tp753
a(I1
I2
tp754
a(I1
I2
tp755
a(I1
I2
tp756
aI00
(dp757
(dp758
(dp759
tp760
Rp761
(dp762
bag1
(I3
(lp763
(I0
I1
tp764
a(I0
I1
tp765
a(I0
I2
tp766
a(I0
I2
tp767
a(I1
I1
tp768
a(I2
I2
tp769
a(I2
I2
tp770
a(I2
I2
tp771
aI00
(dp772
(dp773
(dp774
tp775
Rp776
(dp777
bag1
(I3
(lp778
(I0
I1
tp779
a(I0
I1
tp780
a(I0
I2
tp781
a(I0
I2
tp782
a(I1
I1
tp783
a(I1
I2
tp784
a(I1
I2
tp785
a(I2
I2
tp786
aI00
(dp787
(dp788
(dp789
tp790
Rp791
(dp792
bag1
(I3
(lp793
(I0
I1
tp794
a(I0
I1
tp795
a(I0
I2
tp796
a(I0
I2
tp797
a(I1
I1
tp798
a(I1
I1
tp799
a(I2
I2
tp800
a(I2
I2
tp801
aI00
(dp802
(dp803
(dp804
tp805
Rp806
(dp807
bag1
(I3
(lp808
(I0
I1
tp809
a(I0
I1
tp810
a(I0
I2
tp811
a(I0
I2
tp812
a(I0
I2
tp813
a(I0
I2
tp814
a(I1
I1
tp815
a(I2
I2
tp816
aI00
(dp817
(dp818
(dp819
tp820
Rp821
(dp822
bag1
(I3
(lp823
(I0
I0
tp824
a(I1
I1
tp825
a(I2
I2
tp826
a(I2
I2
tp827
a(I2
I2
tp828
a(I2
I2
tp829
a(I2
I2
tp830
a(I2
I2
tp831
aI00
(dp832
(dp833
(dp834
tp835
Rp836
(dp837
bag1
(I3
(lp838
(I0
I0
tp839
a(I1
I1
tp840
a(I1
I2
tp841
a(I1
I2
tp842
a(I2
I2
tp843
a(I2
I2
tp844
a(I2
I2
tp845
a(I2
I2
tp846
aI00
(dp847
(dp848
(dp849
tp850
Rp851
(dp852
bag1
(I3
(lp853
(I0
I0
tp854
a(I1
I1
tp855
a(I1
I2
tp856
a(I1
I2
tp857
a(I1
I2
tp858
a(I1
I2
tp859
a(I2
I2
tp860
a(I2
I2
tp861
aI00
(dp862
(dp863
(dp864
tp865
Rp866
(dp867
bag1
(I3
(lp868
(I0
I0
tp869
a(I1
I1
tp870
a(I1
I1
tp871
a(I2
I2
tp872
a(I2
I2
tp873
a(I2
I2
tp874
a(I2
I2
tp875
a(I2
I2
tp876
aI00
(dp877
(dp878
(dp879
tp880
Rp881
(dp882
bag1
(I3
(lp883
(I0
I0
tp884
a(I1
I1
tp885
a(I1
I1
tp886
a(I1
I2
tp887
a(I1
I2
tp888
a(I2
I2
tp889
a(I2
I2
tp890
a(I2
I2
tp891
aI00
(dp892
(dp893
(dp894
tp895
Rp896
(dp897
bag1
(I3
(lp898
(I0
I0
tp899
a(I1
I1
tp900
a(I1
I1
tp901
a(I1
I1
tp902
a(I2
I2
tp903
a(I2
I2
tp904
a(I2
I2
tp905
a(I2
I2
tp906
aI00
(dp907
(dp908
(dp909
tp910
Rp911
(dp912
bag1
(I3
(lp913
(I0
I0
tp914
a(I0
I2
tp915
a(I0
I2
tp916
a(I1
I1
tp917
a(I1
I2
tp918
a(I1
I2
tp919
a(I2
I2
tp920
a(I2
I2
tp921
aI00
(dp922
(dp923
(dp924
tp925
Rp926
(dp927
bag1
(I3
(lp928
(I0
I0
tp929
a(I0
I2
tp930
a(I0
I2
tp931
a(I1
I1
tp932
a(I1
I1
tp933
a(I2
I2
tp934
a(I2
I2
tp935
a(I2
I2
tp936
aI00
(dp937
(dp938
(dp939
tp940
Rp941
(dp942
bag1
(I3
(lp943
(I0
I0
tp944
a(I0
I2
tp945
a(I0
I2
tp946
a(I1
I1
tp947
a(I1
I1
tp948
a(I1
I2
tp949
a(I1
I2
tp950
a(I2
I2
tp951
aI00
(dp952
(dp953
(dp954
tp955
Rp956
(dp957
bag1
(I3
(lp958
(I0
I0
tp959
a(I0
I2
tp960
a(I0
I2
tp961
a(I1
I1
tp962
a(I1
I1
tp963
a(I1
I1
tp964
a(I2
I2
tp965
a(I2
I2
tp966
aI00
(dp967
(dp968
(dp969
tp970
Rp971
(dp972
bag1
(I3
(lp973
(I0
I0
tp974
a(I0
I2
tp975
a(I0
I2
tp976
a(I1
I1
tp977
a(I1
I1
tp978
a(I1
I1
tp979
a(I1
I1
tp980
a(I2
I2
tp981
aI00
(dp982
(dp983
(dp984
tp985
Rp986
(dp987
bag1
(I3
(lp988
(I0
I0
tp989
a(I0
I2
tp990
a(I0
I2
tp991
a(I0
I2
tp992
a(I0
I2
tp993
a(I1
I1
tp994
a(I1
I1
tp995
a(I2
I2
tp996
aI00
(dp997
(dp998
(dp999
tp1000
Rp1001
(dp1002
bag1
(I3
(lp1003
(I0
I0
tp1004
a(I0
I1
tp1005
a(I0
I2
tp1006
a(I1
I1
tp1007
a(I1
I2
tp1008
a(I2
I2
tp1009
a(I2
I2
tp1010
a(I2
I2
tp1011
aI00
(dp1012
(dp1013
(dp1014
tp1015
Rp1016
(dp1017
bag1
(I3
(lp1018
(I0
I0
tp1019
a(I0
I1
tp1020
a(I0
I2
tp1021
a(I1
I1
tp1022
a(I1
I2
tp1023
a(I1
I2
tp1024
a(I1
I2
tp1025
a(I2
I2
tp1026
aI00
(dp1027
(dp1028
(dp1029
tp1030
Rp1031
(dp1032
bag1
(I3
(lp1033
(I0
I0
tp1034
a(I0
I1
tp1035
a(I0
I2
tp1036
a(I1
I1
tp1037
a(I1
I1
tp1038
a(I1
I2
tp1039
a(I2
I2
tp1040
a(I2
I2
tp1041
aI00
(dp1042
(dp1043
(dp1044
tp1045
Rp1046
(dp1047
bag1
(I3
(lp1048
(I0
I0
tp1049
a(I0
I0
tp1050
a(I1
I1
tp1051
a(I1
I1
tp1052
a(I2
I2
tp1053
a(I2
I2
tp1054
a(I2
I2
tp1055
a(I2
I2
tp1056
aI00
(dp1057
(dp1058
(dp1059
tp1060
Rp1061
(dp1062
bag1
(I3
(lp1063
(I0
I0
tp1064
a(I0
I0
tp1065
a(I1
I1
tp1066
a(I1
I1
tp1067
a(I1
I2
tp1068
a(I1
I2
tp1069
a(I2
I2
tp1070
a(I2
I2
tp1071
aI00
(dp1072
(dp1073
(dp1074
tp1075
Rp1076
(dp1077
bag1
(I3
(lp1078
(I0
I0
tp1079
a(I0
I0
tp1080
a(I1
I1
tp1081
a(I1
I1
tp1082
a(I1
I1
tp1083
a(I2
I2
tp1084
a(I2
I2
tp1085
a(I2
I2
tp1086
aI00
(dp1087
(dp1088
(dp1089
tp1090
Rp1091
(dp1092
bag1
(I3
(lp1093
(I0
I2
tp1094
a(I0
I2
tp1095
a(I0
I2
tp1096
a(I0
I2
tp1097
a(I1
I2
tp1098
a(I1
I2
tp1099
a(I1
I2
tp1100
a(I1
I2
tp1101
a(I2
I2
tp1102
aI00
(dp1103
(dp1104
(dp1105
tp1106
Rp1107
(dp1108
bag1
(I3
(lp1109
(I0
I2
tp1110
a(I0
I2
tp1111
a(I0
I2
tp1112
a(I0
I2
tp1113
a(I1
I1
tp1114
a(I2
I2
tp1115
a(I2
I2
tp1116
a(I2
I2
tp1117
a(I2
I2
tp1118
aI00
(dp1119
(dp1120
(dp1121
tp1122
Rp1123
(dp1124
bag1
(I3
(lp1125
(I0
I2
tp1126
a(I0
I2
tp1127
a(I0
I2
tp1128
a(I0
I2
tp1129
a(I1
I1
tp1130
a(I1
I2
tp1131
a(I1
I2
tp1132
a(I2
I2
tp1133
a(I2
I2
tp1134
aI00
(dp1135
(dp1136
(dp1137
tp1138
Rp1139
(dp1140
bag1
(I3
(lp1141
(I0
I2
tp1142
a(I0
I2
tp1143
a(I0
I2
tp1144
a(I0
I2
tp1145
a(I1
I1
tp1146
a(I1
I2
tp1147
a(I1
I2
tp1148
a(I1
I2
tp1149
a(I1
I2
tp1150
aI00
(dp1151
(dp1152
(dp1153
tp1154
Rp1155
(dp1156
bag1
(I3
(lp1157
(I0
I2
tp1158
a(I0
I2
tp1159
a(I0
I2
tp1160
a(I0
I2
tp1161
a(I1
I1
tp1162
a(I1
I1
tp1163
a(I2
I2
tp1164
a(I2
I2
tp1165
a(I2
I2
tp1166
aI00
(dp1167
(dp1168
(dp1169
tp1170
Rp1171
(dp1172
bag1
(I3
(lp1173
(I0
I2
tp1174
a(I0
I2
tp1175
a(I0
I2
tp1176
a(I0
I2
tp1177
a(I1
I1
tp1178
a(I1
I1
tp1179
a(I1
I2
tp1180
a(I1
I2
tp1181
a(I2
I2
tp1182
aI00
(dp1183
(dp1184
(dp1185
tp1186
Rp1187
(dp1188
bag1
(I3
(lp1189
(I0
I2
tp1190
a(I0
I2
tp1191
a(I0
I2
tp1192
a(I0
I2
tp1193
a(I1
I1
tp1194
a(I1
I1
tp1195
a(I1
I1
tp1196
a(I2
I2
tp1197
a(I2
I2
tp1198
aI00
(dp1199
(dp1200
(dp1201
tp1202
Rp1203
(dp1204
bag1
(I3
(lp1205
(I0
I2
tp1206
a(I0
I2
tp1207
a(I0
I2
tp1208
a(I0
I2
tp1209
a(I1
I1
tp1210
a(I1
I1
tp1211
a(I1
I1
tp1212
a(I1
I2
tp1213
a(I1
I2
tp1214
aI00
(dp1215
(dp1216
(dp1217
tp1218
Rp1219
(dp1220
bag1
(I3
(lp1221
(I0
I2
tp1222
a(I0
I2
tp1223
a(I0
I2
tp1224
a(I0
I2
tp1225
a(I1
I1
tp1226
a(I1
I1
tp1227
a(I1
I1
tp1228
a(I1
I1
tp1229
a(I2
I2
tp1230
aI00
(dp1231
(dp1232
(dp1233
tp1234
Rp1235
(dp1236
bag1
(I3
(lp1237
(I0
I2
tp1238
a(I0
I2
tp1239
a(I0
I2
tp1240
a(I0
I2
tp1241
a(I1
I1
tp1242
a(I1
I1
tp1243
a(I1
I1
tp1244
a(I1
I1
tp1245
a(I1
I1
tp1246
aI00
(dp1247
(dp1248
(dp1249
tp1250
Rp1251
(dp1252
bag1
(I3
(lp1253
(I0
I2
tp1254
a(I0
I2
tp1255
a(I0
I2
tp1256
a(I0
I2
tp1257
a(I0
I2
tp1258
a(I0
I2
tp1259
a(I1
I1
tp1260
a(I2
I2
tp1261
a(I2
I2
tp1262
aI00
(dp1263
(dp1264
(dp1265
tp1266
Rp1267
(dp1268
bag1
(I3
(lp1269
(I0
I2
tp1270
a(I0
I2
tp1271
a(I0
I2
tp1272
a(I0
I2
tp1273
a(I0
I2
tp1274
a(I0
I2
tp1275
a(I1
I1
tp1276
a(I1
I2
tp1277
a(I1
I2
tp1278
aI00
(dp1279
(dp1280
(dp1281
tp1282
Rp1283
(dp1284
bag1
(I3
(lp1285
(I0
I2
tp1286
a(I0
I2
tp1287
a(I0
I2
tp1288
a(I0
I2
tp1289
a(I0
I2
tp1290
a(I0
I2
tp1291
a(I1
I1
tp1292
a(I1
I1
tp1293
a(I2
I2
tp1294
aI00
(dp1295
(dp1296
(dp1297
tp1298
Rp1299
(dp1300
bag1
(I3
(lp1301
(I0
I2
tp1302
a(I0
I2
tp1303
a(I0
I2
tp1304
a(I0
I2
tp1305
a(I0
I2
tp1306
a(I0
I2
tp1307
a(I1
I1
tp1308
a(I1
I1
tp1309
a(I1
I1
tp1310
aI00
(dp1311
(dp1312
(dp1313
tp1314
Rp1315
(dp1316
bag1
(I3
(lp1317
(I0
I2
tp1318
a(I0
I2
tp1319
a(I0
I2
tp1320
a(I0
I2
tp1321
a(I0
I2
tp1322
a(I0
I2
tp1323
a(I0
I2
tp1324
a(I0
I2
tp1325
a(I1
I1
tp1326
aI00
(dp1327
(dp1328
(dp1329
tp1330
Rp1331
(dp1332
bag1
(I3
(lp1333
(I0
I1
tp1334
a(I0
I2
tp1335
a(I0
I2
tp1336
a(I0
I2
tp1337
a(I1
I2
tp1338
a(I1
I2
tp1339
a(I1
I2
tp1340
a(I2
I2
tp1341
a(I2
I2
tp1342
aI00
(dp1343
(dp1344
(dp1345
tp1346
Rp1347
(dp1348
bag1
(I3
(lp1349
(I0
I1
tp1350
a(I0
I2
tp1351
a(I0
I2
tp1352
a(I0
I2
tp1353
a(I1
I2
tp1354
a(I1
I2
tp1355
a(I1
I2
tp1356
a(I1
I2
tp1357
a(I1
I2
tp1358
aI00
(dp1359
(dp1360
(dp1361
tp1362
Rp1363
(dp1364
bag1
(I3
(lp1365
(I0
I1
tp1366
a(I0
I2
tp1367
a(I0
I2
tp1368
a(I0
I2
tp1369
a(I1
I1
tp1370
a(I1
I2
tp1371
a(I2
I2
tp1372
a(I2
I2
tp1373
a(I2
I2
tp1374
aI00
(dp1375
(dp1376
(dp1377
tp1378
Rp1379
(dp1380
bag1
(I3
(lp1381
(I0
I1
tp1382
a(I0
I2
tp1383
a(I0
I2
tp1384
a(I0
I2
tp1385
a(I1
I1
tp1386
a(I1
I2
tp1387
a(I1
I2
tp1388
a(I1
I2
tp1389
a(I2
I2
tp1390
aI00
(dp1391
(dp1392
(dp1393
tp1394
Rp1395
(dp1396
bag1
(I3
(lp1397
(I0
I1
tp1398
a(I0
I2
tp1399
a(I0
I2
tp1400
a(I0
I2
tp1401
a(I1
I1
tp1402
a(I1
I1
tp1403
a(I1
I2
tp1404
a(I2
I2
tp1405
a(I2
I2
tp1406
aI00
(dp1407
(dp1408
(dp1409
tp1410
Rp1411
(dp1412
bag1
(I3
(lp1413
(I0
I1
tp1414
a(I0
I2
tp1415
a(I0
I2
tp1416
a(I0
I2
tp1417
a(I1
I1
tp1418
a(I1
I1
tp1419
a(I1
I2
tp1420
a(I1
I2
tp1421
a(I1
I2
tp1422
aI00
(dp1423
(dp1424
(dp1425
tp1426
Rp1427
(dp1428
bag1
(I3
(lp1429
(I0
I1
tp1430
a(I0
I2
tp1431
a(I0
I2
tp1432
a(I0
I2
tp1433
a(I1
I1
tp1434
a(I1
I1
tp1435
a(I1
I1
tp1436
a(I1
I2
tp1437
a(I2
I2
tp1438
aI00
(dp1439
(dp1440
(dp1441
tp1442
Rp1443
(dp1444
bag1
(I3
(lp1445
(I0
I1
tp1446
a(I0
I2
tp1447
a(I0
I2
tp1448
a(I0
I2
tp1449
a(I1
I1
tp1450
a(I1
I1
tp1451
a(I1
I1
tp1452
a(I1
I1
tp1453
a(I1
I2
tp1454
aI00
(dp1455
(dp1456
(dp1457
tp1458
Rp1459
(dp1460
bag1
(I3
(lp1461
(I0
I1
tp1462
a(I0
I2
tp1463
a(I0
I2
tp1464
a(I0
I2
tp1465
a(I0
I2
tp1466
a(I0
I2
tp1467
a(I1
I1
tp1468
a(I1
I2
tp1469
a(I2
I2
tp1470
aI00
(dp1471
(dp1472
(dp1473
tp1474
Rp1475
(dp1476
bag1
(I3
(lp1477
(I0
I1
tp1478
a(I0
I2
tp1479
a(I0
I2
tp1480
a(I0
I2
tp1481
a(I0
I2
tp1482
a(I0
I2
tp1483
a(I1
I1
tp1484
a(I1
I1
tp1485
a(I1
I2
tp1486
aI00
(dp1487
(dp1488
(dp1489
tp1490
Rp1491
(dp1492
bag1
(I3
(lp1493
(I0
I1
tp1494
a(I0
I1
tp1495
a(I0
I2
tp1496
a(I0
I2
tp1497
a(I1
I2
tp1498
a(I1
I2
tp1499
a(I2
I2
tp1500
a(I2
I2
tp1501
a(I2
I2
tp1502
aI00
(dp1503
(dp1504
(dp1505
tp1506
Rp1507
(dp1508
bag1
(I3
(lp1509
(I0
I1
tp1510
a(I0
I1
tp1511
a(I0
I2
tp1512
a(I0
I2
tp1513
a(I1
I2
tp1514
a(I1
I2
tp1515
a(I1
I2
tp1516
a(I1
I2
tp1517
a(I2
I2
tp1518
aI00
(dp1519
(dp1520
(dp1521
tp1522
Rp1523
(dp1524
bag1
(I3
(lp1525
(I0
I1
tp1526
a(I0
I1
tp1527
a(I0
I2
tp1528
a(I0
I2
tp1529
a(I1
I1
tp1530
a(I2
I2
tp1531
a(I2
I2
tp1532
a(I2
I2
tp1533
a(I2
I2
tp1534
aI00
(dp1535
(dp1536
(dp1537
tp1538
Rp1539
(dp1540
bag1
(I3
(lp1541
(I0
I1
tp1542
a(I0
I1
tp1543
a(I0
I2
tp1544
a(I0
I2
tp1545
a(I1
I1
tp1546
a(I1
I2
tp1547
a(I1
I2
tp1548
a(I2
I2
tp1549
a(I2
I2
tp1550
aI00
(dp1551
(dp1552
(dp1553
tp1554
Rp1555
(dp1556
bag1
(I3
(lp1557
(I0
I1
tp1558
a(I0
I1
tp1559
a(I0
I2
tp1560
a(I0
I2
tp1561
a(I1
I1
tp1562
a(I1
I1
tp1563
a(I2
I2
tp1564
a(I2
I2
tp1565
a(I2
I2
tp1566
aI00
(dp1567
(dp1568
(dp1569
tp1570
Rp1571
(dp1572
bag1
(I3
(lp1573
(I0
I1
tp1574
a(I0
I1
tp1575
a(I0
I2
tp1576
a(I0
I2
tp1577
a(I0
I2
tp1578
a(I0
I2
tp1579
a(I1
I1
tp1580
a(I2
I2
tp1581
a(I2
I2
tp1582
aI00
(dp1583
(dp1584
(dp1585
tp1586
Rp1587
(dp1588
bag1
(I3
(lp1589
(I0
I1
tp1590
a(I0
I1
tp1591
a(I0
I2
tp1592
a(I0
I2
tp1593
a(I0
I2
tp1594
a(I0
I2
tp1595
a(I1
I1
tp1596
a(I1
I2
tp1597
a(I1
I2
tp1598
aI00
(dp1599
(dp1600
(dp1601
tp1602
Rp1603
(dp1604
bag1
(I3
(lp1605
(I0
I1
tp1606
a(I0
I1
tp1607
a(I0
I2
tp1608
a(I0
I2
tp1609
a(I0
I2
tp1610
a(I0
I2
tp1611
a(I1
I1
tp1612
a(I1
I1
tp1613
a(I2
I2
tp1614
aI00
(dp1615
(dp1616
(dp1617
tp1618
Rp1619
(dp1620
bag1
(I3
(lp1621
(I0
I1
tp1622
a(I0
I1
tp1623
a(I0
I1
tp1624
a(I0
I2
tp1625
a(I0
I2
tp1626
a(I0
I2
tp1627
a(I1
I2
tp1628
a(I1
I2
tp1629
a(I1
I2
tp1630
aI00
(dp1631
(dp1632
(dp1633
tp1634
Rp1635
(dp1636
bag1
(I3
(lp1637
(I0
I1
tp1638
a(I0
I1
tp1639
a(I0
I1
tp1640
a(I0
I2
tp1641
a(I0
I2
tp1642
a(I0
I2
tp1643
a(I1
I1
tp1644
a(I1
I2
tp1645
a(I2
I2
tp1646
aI00
(dp1647
(dp1648
(dp1649
tp1650
Rp1651
(dp1652
bag1
(I3
(lp1653
(I0
I0
tp1654
a(I1
I1
tp1655
a(I2
I2
tp1656
a(I2
I2
tp1657
a(I2
I2
tp1658
a(I2
I2
tp1659
a(I2
I2
tp1660
a(I2
I2
tp1661
a(I2
I2
tp1662
aI00
(dp1663
(dp1664
(dp1665
tp1666
Rp1667
(dp1668
bag1
(I3
(lp1669
(I0
I0
tp1670
a(I1
I1
tp1671
a(I1
I2
tp1672
a(I1
I2
tp1673
a(I2
I2
tp1674
a(I2
I2
tp1675
a(I2
I2
tp1676
a(I2
I2
tp1677
a(I2
I2
tp1678
aI00
(dp1679
(dp1680
(dp1681
tp1682
Rp1683
(dp1684
bag1
(I3
(lp1685
(I0
I0
tp1686
a(I1
I1
tp1687
a(I1
I2
tp1688
a(I1
I2
tp1689
a(I1
I2
tp1690
a(I1
I2
tp1691
a(I2
I2
tp1692
a(I2
I2
tp1693
a(I2
I2
tp1694
aI00
(dp1695
(dp1696
(dp1697
tp1698
Rp1699
(dp1700
bag1
(I3
(lp1701
(I0
I0
tp1702
a(I1
I1
tp1703
a(I1
I2
tp1704
a(I1
I2
tp1705
a(I1
I2
tp1706
a(I1
I2
tp1707
a(I1
I2
tp1708
a(I1
I2
tp1709
a(I2
I2
tp1710
aI00
(dp1711
(dp1712
(dp1713
tp1714
Rp1715
(dp1716
bag1
(I3
(lp1717
(I0
I0
tp1718
a(I1
I1
tp1719
a(I1
I1
tp1720
a(I2
I2
tp1721
a(I2
I2
tp1722
a(I2
I2
tp1723
a(I2
I2
tp1724
a(I2
I2
tp1725
a(I2
I2
tp1726
aI00
(dp1727
(dp1728
(dp1729
tp1730
Rp1731
(dp1732
bag1
(I3
(lp1733
(I0
I0
tp1734
a(I1
I1
tp1735
a(I1
I1
tp1736
a(I1
I2
tp1737
a(I1
I2
tp1738
a(I2
I2
tp1739
a(I2
I2
tp1740
a(I2
I2
tp1741
a(I2
I2
tp1742
aI00
(dp1743
(dp1744
(dp1745
tp1746
Rp1747
(dp1748
bag1
(I3
(lp1749
(I0
I0
tp1750
a(I1
I1
tp1751
a(I1
I1
tp1752
a(I1
I2
tp1753
a(I1
I2
tp1754
a(I1
I2
tp1755
a(I1
I2
tp1756
a(I2
I2
tp1757
a(I2
I2
tp1758
aI00
(dp1759
(dp1760
(dp1761
tp1762
Rp1763
(dp1764
bag1
(I3
(lp1765
(I0
I0
tp1766
a(I1
I1
tp1767
a(I1
I1
tp1768
a(I1
I1
tp1769
a(I2
I2
tp1770
a(I2
I2
tp1771
a(I2
I2
tp1772
a(I2
I2
tp1773
a(I2
I2
tp1774
aI00
(dp1775
(dp1776
(dp1777
tp1778
Rp1779
(dp1780
bag1
(I3
(lp1781
(I0
I0
tp1782
a(I1
I1
tp1783
a(I1
I1
tp1784
a(I1
I1
tp1785
a(I1
I2
tp1786
a(I1
I2
tp1787
a(I2
I2
tp1788
a(I2
I2
tp1789
a(I2
I2
tp1790
aI00
(dp1791
(dp1792
(dp1793
tp1794
Rp1795
(dp1796
bag1
(I3
(lp1797
(I0
I0
tp1798
a(I1
I1
tp1799
a(I1
I1
tp1800
a(I1
I1
tp1801
a(I1
I1
tp1802
a(I2
I2
tp1803
a(I2
I2
tp1804
a(I2
I2
tp1805
a(I2
I2
tp1806
aI00
(dp1807
(dp1808
(dp1809
tp1810
Rp1811
(dp1812
bag1
(I3
(lp1813
(I0
I0
tp1814
a(I0
I2
tp1815
a(I0
I2
tp1816
a(I1
I1
tp1817
a(I1
I2
tp1818
a(I1
I2
tp1819
a(I2
I2
tp1820
a(I2
I2
tp1821
a(I2
I2
tp1822
aI00
(dp1823
(dp1824
(dp1825
tp1826
Rp1827
(dp1828
bag1
(I3
(lp1829
(I0
I0
tp1830
a(I0
I2
tp1831
a(I0
I2
tp1832
a(I1
I1
tp1833
a(I1
I2
tp1834
a(I1
I2
tp1835
a(I1
I2
tp1836
a(I1
I2
tp1837
a(I2
I2
tp1838
aI00
(dp1839
(dp1840
(dp1841
tp1842
Rp1843
(dp1844
bag1
(I3
(lp1845
(I0
I0
tp1846
a(I0
I2
tp1847
a(I0
I2
tp1848
a(I1
I1
tp1849
a(I1
I1
tp1850
a(I2
I2
tp1851
a(I2
I2
tp1852
a(I2
I2
tp1853
a(I2
I2
tp1854
aI00
(dp1855
(dp1856
(dp1857
tp1858
Rp1859
(dp1860
bag1
(I3
(lp1861
(I0
I0
tp1862
a(I0
I2
tp1863
a(I0
I2
tp1864
a(I1
I1
tp1865
a(I1
I1
tp1866
a(I1
I2
tp1867
a(I1
I2
tp1868
a(I2
I2
tp1869
a(I2
I2
tp1870
aI00
(dp1871
(dp1872
(dp1873
tp1874
Rp1875
(dp1876
bag1
(I3
(lp1877
(I0
I0
tp1878
a(I0
I2
tp1879
a(I0
I2
tp1880
a(I1
I1
tp1881
a(I1
I1
tp1882
a(I1
I1
tp1883
a(I2
I2
tp1884
a(I2
I2
tp1885
a(I2
I2
tp1886
aI00
(dp1887
(dp1888
(dp1889
tp1890
Rp1891
(dp1892
bag1
(I3
(lp1893
(I0
I0
tp1894
a(I0
I2
tp1895
a(I0
I2
tp1896
a(I1
I1
tp1897
a(I1
I1
tp1898
a(I1
I1
tp1899
a(I1
I2
tp1900
a(I1
I2
tp1901
a(I2
I2
tp1902
aI00
(dp1903
(dp1904
(dp1905
tp1906
Rp1907
(dp1908
bag1
(I3
(lp1909
(I0
I0
tp1910
a(I0
I2
tp1911
a(I0
I2
tp1912
a(I1
I1
tp1913
a(I1
I1
tp1914
a(I1
I1
tp1915
a(I1
I1
tp1916
a(I2
I2
tp1917
a(I2
I2
tp1918
aI00
(dp1919
(dp1920
(dp1921
tp1922
Rp1923
(dp1924
bag1
(I3
(lp1925
(I0
I0
tp1926
a(I0
I2
tp1927
a(I0
I2
tp1928
a(I1
I1
tp1929
a(I1
I1
tp1930
a(I1
I1
tp1931
a(I1
I1
tp1932
a(I1
I1
tp1933
a(I2
I2
tp1934
aI00
(dp1935
(dp1936
(dp1937
tp1938
Rp1939
(dp1940
bag1
(I3
(lp1941
(I0
I0
tp1942
a(I0
I2
tp1943
a(I0
I2
tp1944
a(I0
I2
tp1945
a(I0
I2
tp1946
a(I1
I1
tp1947
a(I1
I1
tp1948
a(I2
I2
tp1949
a(I2
I2
tp1950
aI00
(dp1951
(dp1952
(dp1953
tp1954
Rp1955
(dp1956
bag1
(I3
(lp1957
(I0
I0
tp1958
a(I0
I2
tp1959
a(I0
I2
tp1960
a(I0
I2
tp1961
a(I0
I2
tp1962
a(I1
I1
tp1963
a(I1
I1
tp1964
a(I1
I1
tp1965
a(I2
I2
tp1966
aI00
(dp1967
(dp1968
(dp1969
tp1970
Rp1971
(dp1972
bag1
(I3
(lp1973
(I0
I0
tp1974
a(I0
I1
tp1975
a(I0
I2
tp1976
a(I1
I1
tp1977
a(I1
I2
tp1978
a(I2
I2
tp1979
a(I2
I2
tp1980
a(I2
I2
tp1981
a(I2
I2
tp1982
aI00
(dp1983
(dp1984
(dp1985
tp1986
Rp1987
(dp1988
bag1
(I3
(lp1989
(I0
I0
tp1990
a(I0
I1
tp1991
a(I0
I2
tp1992
a(I1
I1
tp1993
a(I1
I2
tp1994
a(I1
I2
tp1995
a(I1
I2
tp1996
a(I2
I2
tp1997
a(I2
I2
tp1998
aI00
(dp1999
(dp2000
(dp2001
tp2002
Rp2003
(dp2004
bag1
(I3
(lp2005
(I0
I0
tp2006
a(I0
I1
tp2007
a(I0
I2
tp2008
a(I1
I1
tp2009
a(I1
I1
tp2010
a(I1
I2
tp2011
a(I2
I2
tp2012
a(I2
I2
tp2013
a(I2
I2
tp2014
aI00
(dp2015
(dp2016
(dp2017
tp2018
Rp2019
(dp2020
bag1
(I3
(lp2021
(I0
I0
tp2022
a(I0
I1
tp2023
a(I0
I2
tp2024
a(I0
I2
tp2025
a(I0
I2
tp2026
a(I1
I1
tp2027
a(I1
I1
tp2028
a(I1
I2
tp2029
a(I2
I2
tp2030
aI00
(dp2031
(dp2032
(dp2033
tp2034
Rp2035
(dp2036
bag1
(I3
(lp2037
(I0
I0
tp2038
a(I0
I1
tp2039
a(I0
I1
tp2040
a(I0
I2
tp2041
a(I0
I2
tp2042
a(I1
I1
tp2043
a(I1
I2
tp2044
a(I1
I2
tp2045
a(I2
I2
tp2046
aI00
(dp2047
(dp2048
(dp2049
tp2050
Rp2051
(dp2052
bag1
(I3
(lp2053
(I0
I0
tp2054
a(I0
I1
tp2055
a(I0
I1
tp2056
a(I0
I2
tp2057
a(I0
I2
tp2058
a(I1
I1
tp2059
a(I1
I1
tp2060
a(I2
I2
tp2061
a(I2
I2
tp2062
aI00
(dp2063
(dp2064
(dp2065
tp2066
Rp2067
(dp2068
bag1
(I3
(lp2069
(I0
I0
tp2070
a(I0
I0
tp2071
a(I1
I1
tp2072
a(I1
I1
tp2073
a(I2
I2
tp2074
a(I2
I2
tp2075
a(I2
I2
tp2076
a(I2
I2
tp2077
a(I2
I2
tp2078
aI00
(dp2079
(dp2080
(dp2081
tp2082
Rp2083
(dp2084
bag1
(I3
(lp2085
(I0
I0
tp2086
a(I0
I0
tp2087
a(I1
I1
tp2088
a(I1
I1
tp2089
a(I1
I2
tp2090
a(I1
I2
tp2091
a(I2
I2
tp2092
a(I2
I2
tp2093
a(I2
I2
tp2094
aI00
(dp2095
(dp2096
(dp2097
tp2098
Rp2099
(dp2100
bag1
(I3
(lp2101
(I0
I0
tp2102
a(I0
I0
tp2103
a(I1
I1
tp2104
a(I1
I1
tp2105
a(I1
I1
tp2106
a(I2
I2
tp2107
a(I2
I2
tp2108
a(I2
I2
tp2109
a(I2
I2
tp2110
aI00
(dp2111
(dp2112
(dp2113
tp2114
Rp2115
(dp2116
bag1
(I3
(lp2117
(I0
I0
tp2118
a(I0
I0
tp2119
a(I0
I2
tp2120
a(I0
I2
tp2121
a(I1
I1
tp2122
a(I1
I1
tp2123
a(I1
I1
tp2124
a(I2
I2
tp2125
a(I2
I2
tp2126
aI00
(dp2127
(dp2128
(dp2129
tp2130
Rp2131
(dp2132
bag1
(I3
(lp2133
(I0
I0
tp2134
a(I0
I0
tp2135
a(I0
I1
tp2136
a(I0
I2
tp2137
a(I1
I1
tp2138
a(I1
I1
tp2139
a(I1
I2
tp2140
a(I2
I2
tp2141
a(I2
I2
tp2142
aI00
(dp2143
(dp2144
(dp2145
tp2146
Rp2147
(dp2148
bag1
(I3
(lp2149
(I0
I0
tp2150
a(I0
I0
tp2151
a(I0
I0
tp2152
a(I1
I1
tp2153
a(I1
I1
tp2154
a(I1
I1
tp2155
a(I2
I2
tp2156
a(I2
I2
tp2157
a(I2
I2
tp2158
aI00
(dp2159
(dp2160
(dp2161
tp2162
Rp2163
(dp2164
ba.