(lp0
cigraph
Graph
p1
(I4
(lp2
(I0
I0
tp3
a(I1
I1
tp4
a(I2
I2
tp5
a(I3
I3
tp6
aI00
(dp7
(dp8
(dp9
tp10
Rp11
(dp12
bag1
(I4
(lp13
(I0
I0
tp14
a(I1
I1
tp15
a(I2
I2
tp16
a(I3
I3
tp17
a(I3
I3
tp18
aI00
(dp19
(dp20
(dp21
tp22
Rp23
(dp24
bag1
(I4
(lp25
(I0
I3
tp26
a(I0
I3
tp27
a(I0
I3
tp28
a(I0
I3
tp29
a(I1
I1
tp30
a(I2
I2
tp31
aI00
(dp32
(dp33
(dp34
tp35
Rp36
(dp37
bag1
(I4
(lp38
(I0
I0
tp39
a(I1
I1
tp40
a(I2
I2
tp41
a(I3
I3
tp42
a(I3
I3
tp43
a(I3
I3
tp44
aI00
(dp45
(dp46
(dp47
tp48
Rp49
(dp50
bag1
(I4
(lp51
(I0
I0
tp52
a(I1
I1
tp53
a(I2
I2
tp54
a(I2
I3
tp55
a(I2
I3
tp56
a(I3
I3
tp57
aI00
(dp58
(dp59
(dp60
tp61
Rp62
(dp63
bag1
(I4
(lp64
(I0
I0
tp65
a(I1
I1
tp66
a(I2
I2
tp67
a(I2
I2
tp68
a(I3
I3
tp69
a(I3
I3
tp70
aI00
(dp71
(dp72
(dp73
tp74
Rp75
(dp76
bag1
(I4
(lp77
(I0
I3
tp78
a(I0
I3
tp79
a(I0
I3
tp80
a(I0
I3
tp81
a(I1
I1
tp82
a(I2
I2
tp83
a(I3
I3
tp84
aI00
(dp85
(dp86
(dp87
tp88
Rp89
(dp90
bag1
(I4
(lp91
(I0
I3
tp92
a(I0
I3
tp93
a(I0
I3
tp94
a(I0
I3
tp95
a(I1
I1
tp96
a(I2
I2
tp97
a(I2
I2
tp98
aI00
(dp99
(dp100
(dp101
tp102
Rp103
(dp104
bag1
(I4
(lp105
(I0
I2
tp106
a(I0
I3
tp107
a(I0
I3
tp108
a(I0
I3
tp109
a(I1
I1
tp110
a(I2
I2
tp111
a(I2
I3
tp112
aI00
(dp113
(dp114
(dp115
tp116
Rp117
(dp118
bag1
(I4
(lp119
(I0
I2
tp120
a(I0
I2
tp121
a(I0
I3
tp122
a(I0
I3
tp123
a(I1
I1
tp124
a(I2
I3
tp125
a(I2
I3
tp126
aI00
(dp127
(dp128
(dp129
tp130
Rp131
(dp132
bag1
(I4
(lp133
(I0
I2
tp134
a(I0
I2
tp135
a(I0
I3
tp136
a(I0
I3
tp137
a(I1
I1
tp138
a(I2
I2
tp139
a(I3
I3
tp140
aI00
(dp141
(dp142
(dp143
tp144
Rp145
(dp146
bag1
(I4
(lp147
(I0
I0
tp148
a(I1
I1
tp149
a(I2
I2
tp150
a(I3
I3
tp151
a(I3
I3
tp152
a(I3
I3
tp153
a(I3
I3
tp154
aI00
(dp155
(dp156
(dp157
tp158
Rp159
(dp160
bag1
(I4
(lp161
(I0
I0
tp162
a(I1
I1
tp163
a(I2
I2
tp164
a(I2
I3
tp165
a(I2
I3
tp166
a(I3
I3
tp167
a(I3
I3
tp168
aI00
(dp169
(dp170
(dp171
tp172
Rp173
(dp174
bag1
(I4
(lp175
(I0
I0
tp176
a(I1
I1
tp177
a(I2
I2
tp178
a(I2
I2
tp179
a(I3
I3
tp180
a(I3
I3
tp181
a(I3
I3
tp182
aI00
(dp183
(dp184
(dp185
tp186
Rp187
(dp188
bag1
(I4
(lp189
(I0
I0
tp190
a(I1
I1
tp191
a(I1
I3
tp192
a(I1
I3
tp193
a(I2
I2
tp194
a(I2
I2
tp195
a(I3
I3
tp196
aI00
(dp197
(dp198
(dp199
tp200
Rp201
(dp202
bag1
(I4
(lp203
(I0
I0
tp204
a(I1
I1
tp205
a(I1
I2
tp206
a(I1
I3
tp207
a(I2
I2
tp208
a(I2
I3
tp209
a(I3
I3
tp210
aI00
(dp211
(dp212
(dp213
tp214
Rp215
(dp216
bag1
(I4
(lp217
(I0
I0
tp218
a(I1
I1
tp219
a(I1
I1
tp220
a(I2
I2
tp221
a(I2
I2
tp222
a(I3
I3
tp223
a(I3
I3
tp224
aI00
(dp225
(dp226
(dp227
tp228
Rp229
(dp230
bag1
(I4
(lp231
(I0
I3
tp232
a(I0
I3
tp233
a(I0
I3
tp234
a(I0
I3
tp235
a(I1
I2
tp236
a(I1
I2
tp237
a(I1
I2
tp238
a(I1
I2
tp239
aI00
(dp240
(dp241
(dp242
tp243
Rp244
(dp245
bag1
(I4
(lp246
(I0
I3
tp247
a(I0
I3
tp248
a(I0
I3
tp249
a(I0
I3
tp250
a(I1
I1
tp251
a(I2
I2
tp252
a(I3
I3
tp253
a(I3
I3
tp254
aI00
(dp255
(dp256
(dp257
tp258
Rp259
(dp260
bag1
(I4
(lp261
(I0
I3
tp262
a(I0
I3
tp263
a(I0
I3
tp264
a(I0
I3
tp265
a(I1
I1
tp266
a(I2
I2
tp267
a(I2
I3
tp268
a(I2
I3
tp269
aI00
(dp270
(dp271
(dp272
tp273
Rp274
(dp275
bag1
(I4
(lp276
(I0
I3
tp277
a(I0
I3
tp278
a(I0
I3
tp279
a(I0
I3
tp280
a(I1
I1
tp281
a(I2
I2
tp282
a(I2
I2
tp283
a(I3
I3
tp284
aI00
(dp285
(dp286
(dp287
tp288
Rp289
(dp290
bag1
(I4
(lp291
(I0
I3
tp292
a(I0
I3
tp293
a(I0
I3
tp294
a(I0
I3
tp295
a(I1
I1
tp296
a(I2
I2
tp297
a(I2
I2
tp298
a(I2
I2
tp299
aI00
(dp300
(dp301
(dp302
tp303
Rp304
(dp305
bag1
(I4
(lp306
(I0
I3
tp307
a(I0
I3
tp308
a(I0
I3
tp309
a(I0
I3
tp310
a(I1
I1
tp311
a(I1
I2
tp312
a(I1
I2
tp313
a(I2
I2
tp314
aI00
(dp315
(dp316
(dp317
tp318
Rp319
(dp320
bag1
(I4
(lp321
(I0
I3
tp322
a(I0
I3
tp323
a(I0
I3
tp324
a(I0
I3
tp325
a(I1
I1
tp326
a(I1
I1
tp327
a(I2
I2
tp328
a(I2
I2
tp329
aI00
(dp330
(dp331
(dp332
tp333
Rp334
(dp335
bag1
(I4
(lp336
(I0
I3
tp337
a(I0
I3
tp338
a(I0
I3
tp339
a(I0
I3
tp340
a(I0
I3
tp341
a(I0
I3
tp342
a(I1
I1
tp343
a(I2
I2
tp344
aI00
(dp345
(dp346
(dp347
tp348
Rp349
(dp350
bag1
(I4
(lp351
(I0
I2
tp352
a(I0
I3
tp353
a(I0
I3
tp354
a(I0
I3
tp355
a(I1
I2
tp356
a(I1
I2
tp357
a(I1
I2
tp358
a(I1
I3
tp359
aI00
(dp360
(dp361
(dp362
tp363
Rp364
(dp365
bag1
(I4
(lp366
(I0
I2
tp367
a(I0
I3
tp368
a(I0
I3
tp369
a(I0
I3
tp370
a(I1
I1
tp371
a(I2
I3
tp372
a(I2
I3
tp373
a(I2
I3
tp374
aI00
(dp375
(dp376
(dp377
tp378
Rp379
(dp380
bag1
(I4
(lp381
(I0
I2
tp382
a(I0
I3
tp383
a(I0
I3
tp384
a(I0
I3
tp385
a(I1
I1
tp386
a(I2
I2
tp387
a(I2
I3
tp388
a(I3
I3
tp389
aI00
(dp390
(dp391
(dp392
tp393
Rp394
(dp395
bag1
(I4
(lp396
(I0
I2
tp397
a(I0
I3
tp398
a(I0
I3
tp399
a(I0
I3
tp400
a(I1
I1
tp401
a(I2
I2
tp402
a(I2
I2
tp403
a(I2
I3
tp404
aI00
(dp405
(dp406
(dp407
tp408
Rp409
(dp410
bag1
(I4
(lp411
(I0
I2
tp412
a(I0
I3
tp413
a(I0
I3
tp414
a(I0
I3
tp415
a(I1
I1
tp416
a(I1
I2
tp417
a(I1
I3
tp418
a(I2
I2
tp419
aI00
(dp420
(dp421
(dp422
tp423
Rp424
(dp425
bag1
(I4
(lp426
(I0
I2
tp427
a(I0
I3
tp428
a(I0
I3
tp429
a(I0
I3
tp430
a(I1
I1
tp431
a(I1
I2
tp432
a(I1
I2
tp433
a(I2
I3
tp434
aI00
(dp435
(dp436
(dp437
tp438
Rp439
(dp440
bag1
(I4
(lp441
(I0
I2
tp442
a(I0
I3
tp443
a(I0
I3
tp444
a(I0
I3
tp445
a(I1
I1
tp446
a(I1
I1
tp447
a(I2
I2
tp448
a(I2
I3
tp449
aI00
(dp450
(dp451
(dp452
tp453
Rp454
(dp455
bag1
(I4
(lp456
(I0
I2
tp457
a(I0
I2
tp458
a(I0
I3
tp459
a(I0
I3
tp460
a(I1
I2
tp461
a(I1
I2
tp462
a(I1
I3
tp463
a(I1
I3
tp464
aI00
(dp465
(dp466
(dp467
tp468
Rp469
(dp470
bag1
(I4
(lp471
(I0
I2
tp472
a(I0
I2
tp473
a(I0
I3
tp474
a(I0
I3
tp475
a(I1
I1
tp476
a(I2
I3
tp477
a(I2
I3
tp478
a(I3
I3
tp479
aI00
(dp480
(dp481
(dp482
tp483
Rp484
(dp485
bag1
(I4
(lp486
(I0
I2
tp487
a(I0
I2
tp488
a(I0
I3
tp489
a(I0
I3
tp490
a(I1
I1
tp491
a(I2
I2
tp492
a(I3
I3
tp493
a(I3
I3
tp494
aI00
(dp495
(dp496
(dp497
tp498
Rp499
(dp500
bag1
(I4
(lp501
(I0
I2
tp502
a(I0
I2
tp503
a(I0
I3
tp504
a(I0
I3
tp505
a(I1
I1
tp506
a(I1
I3
tp507
a(I1
I3
tp508
a(I2
I2
tp509
aI00
(dp510
(dp511
(dp512
tp513
Rp514
(dp515
bag1
(I4
(lp516
(I0
I2
tp517
a(I0
I2
tp518
a(I0
I3
tp519
a(I0
I3
tp520
a(I1
I1
tp521
a(I1
I2
tp522
a(I1
I3
tp523
a(I2
I3
tp524
aI00
(dp525
(dp526
(dp527
tp528
Rp529
(dp530
bag1
(I4
(lp531
(I0
I2
tp532
a(I0
I2
tp533
a(I0
I3
tp534
a(I0
I3
tp535
a(I1
I1
tp536
a(I1
I1
tp537
a(I2
I3
tp538
a(I2
I3
tp539
aI00
(dp540
(dp541
(dp542
tp543
Rp544
(dp545
bag1
(I4
(lp546
(I0
I2
tp547
a(I0
I2
tp548
a(I0
I3
tp549
a(I0
I3
tp550
a(I1
I1
tp551
a(I1
I1
tp552
a(I2
I2
tp553
a(I3
I3
tp554
aI00
(dp555
(dp556
(dp557
tp558
Rp559
(dp560
bag1
(I4
(lp561
(I0
I1
tp562
a(I0
I2
tp563
a(I0
I3
tp564
a(I0
I3
tp565
a(I1
I2
tp566
a(I1
I2
tp567
a(I1
I3
tp568
a(I2
I3
tp569
aI00
(dp570
(dp571
(dp572
tp573
Rp574
(dp575
bag1
(I4
(lp576
(I0
I1
tp577
a(I0
I2
tp578
a(I0
I3
tp579
a(I0
I3
tp580
a(I1
I1
tp581
a(I1
I3
tp582
a(I2
I2
tp583
a(I2
I3
tp584
aI00
(dp585
(dp586
(dp587
tp588
Rp589
(dp590
bag1
(I4
(lp591
(I0
I1
tp592
a(I0
I2
tp593
a(I0
I3
tp594
a(I0
I3
tp595
a(I1
I1
tp596
a(I1
I2
tp597
a(I2
I2
tp598
a(I3
I3
tp599
aI00
(dp600
(dp601
(dp602
tp603
Rp604
(dp605
bag1
(I4
(lp606
(I0
I0
tp607
a(I1
I1
tp608
a(I2
I2
tp609
a(I3
I3
tp610
a(I3
I3
tp611
a(I3
I3
tp612
a(I3
I3
tp613
a(I3
I3
tp614
aI00
(dp615
(dp616
(dp617
tp618
Rp619
(dp620
bag1
(I4
(lp621
(I0
I0
tp622
a(I1
I1
tp623
a(I2
I2
tp624
a(I2
I3
tp625
a(I2
I3
tp626
a(I3
I3
tp627
a(I3
I3
tp628
a(I3
I3
tp629
aI00
(dp630
(dp631
(dp632
tp633
Rp634
(dp635
bag1
(I4
(lp636
(I0
I0
tp637
a(I1
I1
tp638
a(I2
I2
tp639
a(I2
I3
tp640
a(I2
I3
tp641
a(I2
I3
tp642
a(I2
I3
tp643
a(I3
I3
tp644
aI00
(dp645
(dp646
(dp647
tp648
Rp649
(dp650
bag1
(I4
(lp651
(I0
I0
tp652
a(I1
I1
tp653
a(I2
I2
tp654
a(I2
I2
tp655
a(I3
I3
tp656
a(I3
I3
tp657
a(I3
I3
tp658
a(I3
I3
tp659
aI00
(dp660
(dp661
(dp662
tp663
Rp664
(dp665
bag1
(I4
(lp666
(I0
I0
tp667
a(I1
I1
tp668
a(I2
I2
tp669
a(I2
I2
tp670
a(I2
I3
tp671
a(I2
I3
tp672
a(I3
I3
tp673
a(I3
I3
tp674
aI00
(dp675
(dp676
(dp677
tp678
Rp679
(dp680
bag1
(I4
(lp681
(I0
I0
tp682
a(I1
I1
tp683
a(I2
I2
tp684
a(I2
I2
tp685
a(I2
I2
tp686
a(I3
I3
tp687
a(I3
I3
tp688
a(I3
I3
tp689
aI00
(dp690
(dp691
(dp692
tp693
Rp694
(dp695
bag1
(I4
(lp696
(I0
I0
tp697
a(I1
I1
tp698
a(I1
I3
tp699
a(I1
I3
tp700
a(I2
I2
tp701
a(I2
I3
tp702
a(I2
I3
tp703
a(I3
I3
tp704
aI00
(dp705
(dp706
(dp707
tp708
Rp709
(dp710
bag1
(I4
(lp711
(I0
I0
tp712
a(I1
I1
tp713
a(I1
I3
tp714
a(I1
I3
tp715
a(I2
I2
tp716
a(I2
I2
tp717
a(I3
I3
tp718
a(I3
I3
tp719
aI00
(dp720
(dp721
(dp722
tp723
Rp724
(dp725
bag1
(I4
(lp726
(I0
I0
tp727
a(I1
I1
tp728
a(I1
I3
tp729
a(I1
I3
tp730
a(I2
I2
tp731
a(I2
I2
tp732
a(I2
I2
tp733
a(I3
I3
tp734
aI00
(dp735
(dp736
(dp737
tp738
Rp739
(dp740
bag1
(I4
(lp741
(I0
I0
tp742
a(I1
I1
tp743
a(I1
I2
tp744
a(I1
I3
tp745
a(I2
I2
tp746
a(I2
I3
tp747
a(I3
I3
tp748
a(I3
I3
tp749
aI00
(dp750
(dp751
(dp752
tp753
Rp754
(dp755
bag1
(I4
(lp756
(I0
I0
tp757
a(I1
I1
tp758
a(I1
I1
tp759
a(I2
I2
tp760
a(I2
I2
tp761
a(I3
I3
tp762
a(I3
I3
tp763
a(I3
I3
tp764
aI00
(dp765
(dp766
(dp767
tp768
Rp769
(dp770
bag1
(I4
(lp771
(I0
I0
tp772
a(I0
I3
tp773
a(I0
I3
tp774
a(I1
I1
tp775
a(I1
I2
tp776
a(I1
I2
tp777
a(I2
I2
tp778
a(I3
I3
tp779
aI00
(dp780
(dp781
(dp782
tp783
Rp784
(dp785
bag1
(I4
(lp786
(I0
I0
tp787
a(I0
I3
tp788
a(I0
I3
tp789
a(I1
I1
tp790
a(I1
I1
tp791
a(I2
I2
tp792
a(I2
I2
tp793
a(I3
I3
tp794
aI00
(dp795
(dp796
(dp797
tp798
Rp799
(dp800
bag1
(I4
(lp801
(I0
I0
tp802
a(I0
I2
tp803
a(I0
I3
tp804
a(I1
I1
tp805
a(I1
I2
tp806
a(I1
I3
tp807
a(I2
I2
tp808
a(I3
I3
tp809
aI00
(dp810
(dp811
(dp812
tp813
Rp814
(dp815
bag1
(I4
(lp816
(I0
I0
tp817
a(I0
I2
tp818
a(I0
I3
tp819
a(I1
I1
tp820
a(I1
I1
tp821
a(I2
I2
tp822
a(I2
I3
tp823
a(I3
I3
tp824
aI00
(dp825
(dp826
(dp827
tp828
Rp829
(dp830
bag1
(I4
(lp831
(I0
I0
tp832
a(I0
I0
tp833
a(I1
I1
tp834
a(I1
I1
tp835
a(I2
I2
tp836
a(I2
I2
tp837
a(I3
I3
tp838
a(I3
I3
tp839
aI00
(dp840
(dp841
(dp842
tp843
Rp844
(dp845
bag1
(I4
(lp846
(I0
I3
tp847
a(I0
I3
tp848
a(I0
I3
tp849
a(I0
I3
tp850
a(I1
I3
tp851
a(I1
I3
tp852
a(I1
I3
tp853
a(I1
I3
tp854
a(I2
I2
tp855
aI00
(dp856
(dp857
(dp858
tp859
Rp860
(dp861
bag1
(I4
(lp862
(I0
I3
tp863
a(I0
I3
tp864
a(I0
I3
tp865
a(I0
I3
tp866
a(I1
I2
tp867
a(I1
I2
tp868
a(I1
I3
tp869
a(I1
I3
tp870
a(I2
I2
tp871
aI00
(dp872
(dp873
(dp874
tp875
Rp876
(dp877
bag1
(I4
(lp878
(I0
I3
tp879
a(I0
I3
tp880
a(I0
I3
tp881
a(I0
I3
tp882
a(I1
I2
tp883
a(I1
I2
tp884
a(I1
I2
tp885
a(I1
I3
tp886
a(I2
I3
tp887
aI00
(dp888
(dp889
(dp890
tp891
Rp892
(dp893
bag1
(I4
(lp894
(I0
I3
tp895
a(I0
I3
tp896
a(I0
I3
tp897
a(I0
I3
tp898
a(I1
I2
tp899
a(I1
I2
tp900
a(I1
I2
tp901
a(I1
I2
tp902
a(I3
I3
tp903
aI00
(dp904
(dp905
(dp906
tp907
Rp908
(dp909
bag1
(I4
(lp910
(I0
I3
tp911
a(I0
I3
tp912
a(I0
I3
tp913
a(I0
I3
tp914
a(I1
I1
tp915
a(I2
I2
tp916
a(I3
I3
tp917
a(I3
I3
tp918
a(I3
I3
tp919
aI00
(dp920
(dp921
(dp922
tp923
Rp924
(dp925
bag1
(I4
(lp926
(I0
I3
tp927
a(I0
I3
tp928
a(I0
I3
tp929
a(I0
I3
tp930
a(I1
I1
tp931
a(I2
I2
tp932
a(I2
I3
tp933
a(I2
I3
tp934
a(I3
I3
tp935
aI00
(dp936
(dp937
(dp938
tp939
Rp940
(dp941
bag1
(I4
(lp942
(I0
I3
tp943
a(I0
I3
tp944
a(I0
I3
tp945
a(I0
I3
tp946
a(I1
I1
tp947
a(I2
I2
tp948
a(I2
I2
tp949
a(I3
I3
tp950
a(I3
I3
tp951
aI00
(dp952
(dp953
(dp954
tp955
Rp956
(dp957
bag1
(I4
(lp958
(I0
I3
tp959
a(I0
I3
tp960
a(I0
I3
tp961
a(I0
I3
tp962
a(I1
I1
tp963
a(I2
I2
tp964
a(I2
I2
tp965
a(I2
I3
tp966
a(I2
I3
tp967
aI00
(dp968
(dp969
(dp970
tp971
Rp972
(dp973
bag1
(I4
(lp974
(I0
I3
tp975
a(I0
I3
tp976
a(I0
I3
tp977
a(I0
I3
tp978
a(I1
I1
tp979
a(I2
I2
tp980
a(I2
I2
tp981
a(I2
I2
tp982
a(I3
I3
tp983
aI00
(dp984
(dp985
(dp986
tp987
Rp988
(dp989
bag1
(I4
(lp990
(I0
I3
tp991
a(I0
I3
tp992
a(I0
I3
tp993
a(I0
I3
tp994
a(I1
I1
tp995
a(I2
I2
tp996
a(I2
I2
tp997
a(I2
I2
tp998
a(I2
I2
tp999
aI00
(dp1000
(dp1001
(dp1002
tp1003
Rp1004
(dp1005
bag1
(I4
(lp1006
(I0
I3
tp1007
a(I0
I3
tp1008
a(I0
I3
tp1009
a(I0
I3
tp1010
a(I1
I1
tp1011
a(I1
I3
tp1012
a(I1
I3
tp1013
a(I2
I2
tp1014
a(I2
I2
tp1015
aI00
(dp1016
(dp1017
(dp1018
tp1019
Rp1020
(dp1021
bag1
(I4
(lp1022
(I0
I3
tp1023
a(I0
I3
tp1024
a(I0
I3
tp1025
a(I0
I3
tp1026
a(I1
I1
tp1027
a(I1
I2
tp1028
a(I1
I3
tp1029
a(I2
I2
tp1030
a(I2
I3
tp1031
aI00
(dp1032
(dp1033
(dp1034
tp1035
Rp1036
(dp1037
bag1
(I4
(lp1038
(I0
I3
tp1039
a(I0
I3
tp1040
a(I0
I3
tp1041
a(I0
I3
tp1042
a(I1
I1
tp1043
a(I1
I2
tp1044
a(I1
I2
tp1045
a(I2
I2
tp1046
a(I3
I3
tp1047
aI00
(dp1048
(dp1049
(dp1050
tp1051
Rp1052
(dp1053
bag1
(I4
(lp1054
(I0
I3
tp1055
a(I0
I3
tp1056
a(I0
I3
tp1057
a(I0
I3
tp1058
a(I1
I1
tp1059
a(I1
I2
tp1060
a(I1
I2
tp1061
a(I2
I2
tp1062
a(I2
I2
tp1063
aI00
(dp1064
(dp1065
(dp1066
tp1067
Rp1068
(dp1069
bag1
(I4
(lp1070
(I0
I3
tp1071
a(I0
I3
tp1072
a(I0
I3
tp1073
a(I0
I3
tp1074
a(I1
I1
tp1075
a(I1
I1
tp1076
a(I2
I2
tp1077
a(I2
I2
tp1078
a(I3
I3
tp1079
aI00
(dp1080
(dp1081
(dp1082
tp1083
Rp1084
(dp1085
bag1
(I4
(lp1086
(I0
I3
tp1087
a(I0
I3
tp1088
a(I0
I3
tp1089
a(I0
I3
tp1090
a(I1
I1
tp1091
a(I1
I1
tp1092
a(I2
I2
tp1093
a(I2
I2
tp1094
a(I2
I2
tp1095
aI00
(dp1096
(dp1097
(dp1098
tp1099
Rp1100
(dp1101
bag1
(I4
(lp1102
(I0
I3
tp1103
a(I0
I3
tp1104
a(I0
I3
tp1105
a(I0
I3
tp1106
a(I0
I3
tp1107
a(I0
I3
tp1108
a(I1
I1
tp1109
a(I2
I2
tp1110
a(I3
I3
tp1111
aI00
(dp1112
(dp1113
(dp1114
tp1115
Rp1116
(dp1117
bag1
(I4
(lp1118
(I0
I3
tp1119
a(I0
I3
tp1120
a(I0
I3
tp1121
a(I0
I3
tp1122
a(I0
I3
tp1123
a(I0
I3
tp1124
a(I1
I1
tp1125
a(I2
I2
tp1126
a(I2
I2
tp1127
aI00
(dp1128
(dp1129
(dp1130
tp1131
Rp1132
(dp1133
bag1
(I4
(lp1134
(I0
I2
tp1135
a(I0
I3
tp1136
a(I0
I3
tp1137
a(I0
I3
tp1138
a(I1
I2
tp1139
a(I1
I3
tp1140
a(I1
I3
tp1141
a(I1
I3
tp1142
a(I2
I2
tp1143
aI00
(dp1144
(dp1145
(dp1146
tp1147
Rp1148
(dp1149
bag1
(I4
(lp1150
(I0
I2
tp1151
a(I0
I3
tp1152
a(I0
I3
tp1153
a(I0
I3
tp1154
a(I1
I2
tp1155
a(I1
I2
tp1156
a(I1
I3
tp1157
a(I1
I3
tp1158
a(I2
I3
tp1159
aI00
(dp1160
(dp1161
(dp1162
tp1163
Rp1164
(dp1165
bag1
(I4
(lp1166
(I0
I2
tp1167
a(I0
I3
tp1168
a(I0
I3
tp1169
a(I0
I3
tp1170
a(I1
I2
tp1171
a(I1
I2
tp1172
a(I1
I2
tp1173
a(I1
I3
tp1174
a(I3
I3
tp1175
aI00
(dp1176
(dp1177
(dp1178
tp1179
Rp1180
(dp1181
bag1
(I4
(lp1182
(I0
I2
tp1183
a(I0
I3
tp1184
a(I0
I3
tp1185
a(I0
I3
tp1186
a(I1
I1
tp1187
a(I2
I3
tp1188
a(I2
I3
tp1189
a(I2
I3
tp1190
a(I3
I3
tp1191
aI00
(dp1192
(dp1193
(dp1194
tp1195
Rp1196
(dp1197
bag1
(I4
(lp1198
(I0
I2
tp1199
a(I0
I3
tp1200
a(I0
I3
tp1201
a(I0
I3
tp1202
a(I1
I1
tp1203
a(I2
I2
tp1204
a(I2
I3
tp1205
a(I3
I3
tp1206
a(I3
I3
tp1207
aI00
(dp1208
(dp1209
(dp1210
tp1211
Rp1212
(dp1213
bag1
(I4
(lp1214
(I0
I2
tp1215
a(I0
I3
tp1216
a(I0
I3
tp1217
a(I0
I3
tp1218
a(I1
I1
tp1219
a(I2
I2
tp1220
a(I2
I3
tp1221
a(I2
I3
tp1222
a(I2
I3
tp1223
aI00
(dp1224
(dp1225
(dp1226
tp1227
Rp1228
(dp1229
bag1
(I4
(lp1230
(I0
I2
tp1231
a(I0
I3
tp1232
a(I0
I3
tp1233
a(I0
I3
tp1234
a(I1
I1
tp1235
a(I2
I2
tp1236
a(I2
I2
tp1237
a(I2
I3
tp1238
a(I3
I3
tp1239
aI00
(dp1240
(dp1241
(dp1242
tp1243
Rp1244
(dp1245
bag1
(I4
(lp1246
(I0
I2
tp1247
a(I0
I3
tp1248
a(I0
I3
tp1249
a(I0
I3
tp1250
a(I1
I1
tp1251
a(I2
I2
tp1252
a(I2
I2
tp1253
a(I2
I2
tp1254
a(I2
I3
tp1255
aI00
(dp1256
(dp1257
(dp1258
tp1259
Rp1260
(dp1261
bag1
(I4
(lp1262
(I0
I2
tp1263
a(I0
I3
tp1264
a(I0
I3
tp1265
a(I0
I3
tp1266
a(I1
I1
tp1267
a(I1
I3
tp1268
a(I1
I3
tp1269
a(I2
I2
tp1270
a(I2
I3
tp1271
aI00
(dp1272
(dp1273
(dp1274
tp1275
Rp1276
(dp1277
bag1
(I4
(lp1278
(I0
I2
tp1279
a(I0
I3
tp1280
a(I0
I3
tp1281
a(I0
I3
tp1282
a(I1
I1
tp1283
a(I1
I2
tp1284
a(I1
I3
tp1285
a(I2
I3
tp1286
a(I2
I3
tp1287
aI00
(dp1288
(dp1289
(dp1290
tp1291
Rp1292
(dp1293
bag1
(I4
(lp1294
(I0
I2
tp1295
a(I0
I3
tp1296
a(I0
I3
tp1297
a(I0
I3
tp1298
a(I1
I1
tp1299
a(I1
I2
tp1300
a(I1
I3
tp1301
a(I2
I2
tp1302
a(I3
I3
tp1303
aI00
(dp1304
(dp1305
(dp1306
tp1307
Rp1308
(dp1309
bag1
(I4
(lp1310
(I0
I2
tp1311
a(I0
I3
tp1312
a(I0
I3
tp1313
a(I0
I3
tp1314
a(I1
I1
tp1315
a(I1
I2
tp1316
a(I1
I3
tp1317
a(I2
I2
tp1318
a(I2
I2
tp1319
aI00
(dp1320
(dp1321
(dp1322
tp1323
Rp1324
(dp1325
bag1
(I4
(lp1326
(I0
I2
tp1327
a(I0
I3
tp1328
a(I0
I3
tp1329
a(I0
I3
tp1330
a(I1
I1
tp1331
a(I1
I2
tp1332
a(I1
I2
tp1333
a(I2
I3
tp1334
a(I3
I3
tp1335
aI00
(dp1336
(dp1337
(dp1338
tp1339
Rp1340
(dp1341
bag1
(I4
(lp1342
(I0
I2
tp1343
a(I0
I3
tp1344
a(I0
I3
tp1345
a(I0
I3
tp1346
a(I1
I1
tp1347
a(I1
I2
tp1348
a(I1
I2
tp1349
a(I2
I2
tp1350
a(I2
I3
tp1351
aI00
(dp1352
(dp1353
(dp1354
tp1355
Rp1356
(dp1357
bag1
(I4
(lp1358
(I0
I2
tp1359
a(I0
I3
tp1360
a(I0
I3
tp1361
a(I0
I3
tp1362
a(I1
I1
tp1363
a(I1
I1
tp1364
a(I2
I3
tp1365
a(I2
I3
tp1366
a(I2
I3
tp1367
aI00
(dp1368
(dp1369
(dp1370
tp1371
Rp1372
(dp1373
bag1
(I4
(lp1374
(I0
I2
tp1375
a(I0
I3
tp1376
a(I0
I3
tp1377
a(I0
I3
tp1378
a(I1
I1
tp1379
a(I1
I1
tp1380
a(I2
I2
tp1381
a(I2
I3
tp1382
a(I3
I3
tp1383
aI00
(dp1384
(dp1385
(dp1386
tp1387
Rp1388
(dp1389
bag1
(I4
(lp1390
(I0
I2
tp1391
a(I0
I3
tp1392
a(I0
I3
tp1393
a(I0
I3
tp1394
a(I1
I1
tp1395
a(I1
I1
tp1396
a(I2
I2
tp1397
a(I2
I2
tp1398
a(I2
I3
tp1399
aI00
(dp1400
(dp1401
(dp1402
tp1403
Rp1404
(dp1405
bag1
(I4
(lp1406
(I0
I2
tp1407
a(I0
I3
tp1408
a(I0
I3
tp1409
a(I0
I3
tp1410
a(I1
I1
tp1411
a(I1
I1
tp1412
a(I1
I2
tp1413
a(I1
I2
tp1414
a(I2
I3
tp1415
aI00
(dp1416
(dp1417
(dp1418
tp1419
Rp1420
(dp1421
bag1
(I4
(lp1422
(I0
I2
tp1423
a(I0
I3
tp1424
a(I0
I3
tp1425
a(I0
I3
tp1426
a(I1
I1
tp1427
a(I1
I1
tp1428
a(I1
I1
tp1429
a(I2
I2
tp1430
a(I2
I3
tp1431
aI00
(dp1432
(dp1433
(dp1434
tp1435
Rp1436
(dp1437
bag1
(I4
(lp1438
(I0
I2
tp1439
a(I0
I3
tp1440
a(I0
I3
tp1441
a(I0
I3
tp1442
a(I0
I3
tp1443
a(I0
I3
tp1444
a(I1
I1
tp1445
a(I2
I2
tp1446
a(I2
I3
tp1447
aI00
(dp1448
(dp1449
(dp1450
tp1451
Rp1452
(dp1453
bag1
(I4
(lp1454
(I0
I2
tp1455
a(I0
I2
tp1456
a(I0
I3
tp1457
a(I0
I3
tp1458
a(I1
I2
tp1459
a(I1
I2
tp1460
a(I1
I3
tp1461
a(I1
I3
tp1462
a(I3
I3
tp1463
aI00
(dp1464
(dp1465
(dp1466
tp1467
Rp1468
(dp1469
bag1
(I4
(lp1470
(I0
I2
tp1471
a(I0
I2
tp1472
a(I0
I3
tp1473
a(I0
I3
tp1474
a(I1
I1
tp1475
a(I2
I3
tp1476
a(I2
I3
tp1477
a(I3
I3
tp1478
a(I3
I3
tp1479
aI00
(dp1480
(dp1481
(dp1482
tp1483
Rp1484
(dp1485
bag1
(I4
(lp1486
(I0
I2
tp1487
a(I0
I2
tp1488
a(I0
I3
tp1489
a(I0
I3
tp1490
a(I1
I1
tp1491
a(I2
I3
tp1492
a(I2
I3
tp1493
a(I2
I3
tp1494
a(I2
I3
tp1495
aI00
(dp1496
(dp1497
(dp1498
tp1499
Rp1500
(dp1501
bag1
(I4
(lp1502
(I0
I2
tp1503
a(I0
I2
tp1504
a(I0
I3
tp1505
a(I0
I3
tp1506
a(I1
I1
tp1507
a(I2
I2
tp1508
a(I3
I3
tp1509
a(I3
I3
tp1510
a(I3
I3
tp1511
aI00
(dp1512
(dp1513
(dp1514
tp1515
Rp1516
(dp1517
bag1
(I4
(lp1518
(I0
I2
tp1519
a(I0
I2
tp1520
a(I0
I3
tp1521
a(I0
I3
tp1522
a(I1
I1
tp1523
a(I2
I2
tp1524
a(I2
I3
tp1525
a(I2
I3
tp1526
a(I3
I3
tp1527
aI00
(dp1528
(dp1529
(dp1530
tp1531
Rp1532
(dp1533
bag1
(I4
(lp1534
(I0
I2
tp1535
a(I0
I2
tp1536
a(I0
I3
tp1537
a(I0
I3
tp1538
a(I1
I1
tp1539
a(I2
I2
tp1540
a(I2
I2
tp1541
a(I3
I3
tp1542
a(I3
I3
tp1543
aI00
(dp1544
(dp1545
(dp1546
tp1547
Rp1548
(dp1549
bag1
(I4
(lp1550
(I0
I2
tp1551
a(I0
I2
tp1552
a(I0
I3
tp1553
a(I0
I3
tp1554
a(I1
I1
tp1555
a(I1
I3
tp1556
a(I1
I3
tp1557
a(I2
I3
tp1558
a(I2
I3
tp1559
aI00
(dp1560
(dp1561
(dp1562
tp1563
Rp1564
(dp1565
bag1
(I4
(lp1566
(I0
I2
tp1567
a(I0
I2
tp1568
a(I0
I3
tp1569
a(I0
I3
tp1570
a(I1
I1
tp1571
a(I1
I3
tp1572
a(I1
I3
tp1573
a(I2
I2
tp1574
a(I3
I3
tp1575
aI00
(dp1576
(dp1577
(dp1578
tp1579
Rp1580
(dp1581
bag1
(I4
(lp1582
(I0
I2
tp1583
a(I0
I2
tp1584
a(I0
I3
tp1585
a(I0
I3
tp1586
a(I1
I1
tp1587
a(I1
I3
tp1588
a(I1
I3
tp1589
a(I2
I2
tp1590
a(I2
I2
tp1591
aI00
(dp1592
(dp1593
(dp1594
tp1595
Rp1596
(dp1597
bag1
(I4
(lp1598
(I0
I2
tp1599
a(I0
I2
tp1600
a(I0
I3
tp1601
a(I0
I3
tp1602
a(I1
I1
tp1603
a(I1
I2
tp1604
a(I1
I3
tp1605
a(I2
I3
tp1606
a(I3
I3
tp1607
aI00
(dp1608
(dp1609
(dp1610
tp1611
Rp1612
(dp1613
bag1
(I4
(lp1614
(I0
I2
tp1615
a(I0
I2
tp1616
a(I0
I3
tp1617
a(I0
I3
tp1618
a(I1
I1
tp1619
a(I1
I1
tp1620
a(I2
I3
tp1621
a(I2
I3
tp1622
a(I3
I3
tp1623
aI00
(dp1624
(dp1625
(dp1626
tp1627
Rp1628
(dp1629
bag1
(I4
(lp1630
(I0
I2
tp1631
a(I0
I2
tp1632
a(I0
I3
tp1633
a(I0
I3
tp1634
a(I1
I1
tp1635
a(I1
I1
tp1636
a(I2
I2
tp1637
a(I3
I3
tp1638
a(I3
I3
tp1639
aI00
(dp1640
(dp1641
(dp1642
tp1643
Rp1644
(dp1645
bag1
(I4
(lp1646
(I0
I2
tp1647
a(I0
I2
tp1648
a(I0
I3
tp1649
a(I0
I3
tp1650
a(I1
I1
tp1651
a(I1
I1
tp1652
a(I1
I2
tp1653
a(I1
I3
tp1654
a(I2
I3
tp1655
aI00
(dp1656
(dp1657
(dp1658
tp1659
Rp1660
(dp1661
bag1
(I4
(lp1662
(I0
I2
tp1663
a(I0
I2
tp1664
a(I0
I3
tp1665
a(I0
I3
tp1666
a(I1
I1
tp1667
a(I1
I1
tp1668
a(I1
I1
tp1669
a(I2
I3
tp1670
a(I2
I3
tp1671
aI00
(dp1672
(dp1673
(dp1674
tp1675
Rp1676
(dp1677
bag1
(I4
(lp1678
(I0
I2
tp1679
a(I0
I2
tp1680
a(I0
I3
tp1681
a(I0
I3
tp1682
a(I1
I1
tp1683
a(I1
I1
tp1684
a(I1
I1
tp1685
a(I2
I2
tp1686
a(I3
I3
tp1687
aI00
(dp1688
(dp1689
(dp1690
tp1691
Rp1692
(dp1693
bag1
(I4
(lp1694
(I0
I2
tp1695
a(I0
I2
tp1696
a(I0
I3
tp1697
a(I0
I3
tp1698
a(I0
I3
tp1699
a(I0
I3
tp1700
a(I1
I1
tp1701
a(I2
I2
tp1702
a(I3
I3
tp1703
aI00
(dp1704
(dp1705
(dp1706
tp1707
Rp1708
(dp1709
bag1
(I4
(lp1710
(I0
I1
tp1711
a(I0
I2
tp1712
a(I0
I3
tp1713
a(I0
I3
tp1714
a(I1
I2
tp1715
a(I1
I3
tp1716
a(I1
I3
tp1717
a(I2
I3
tp1718
a(I2
I3
tp1719
aI00
(dp1720
(dp1721
(dp1722
tp1723
Rp1724
(dp1725
bag1
(I4
(lp1726
(I0
I1
tp1727
a(I0
I2
tp1728
a(I0
I3
tp1729
a(I0
I3
tp1730
a(I1
I2
tp1731
a(I1
I3
tp1732
a(I1
I3
tp1733
a(I2
I2
tp1734
a(I3
I3
tp1735
aI00
(dp1736
(dp1737
(dp1738
tp1739
Rp1740
(dp1741
bag1
(I4
(lp1742
(I0
I1
tp1743
a(I0
I2
tp1744
a(I0
I3
tp1745
a(I0
I3
tp1746
a(I1
I2
tp1747
a(I1
I2
tp1748
a(I1
I3
tp1749
a(I2
I3
tp1750
a(I3
I3
tp1751
aI00
(dp1752
(dp1753
(dp1754
tp1755
Rp1756
(dp1757
bag1
(I4
(lp1758
(I0
I1
tp1759
a(I0
I2
tp1760
a(I0
I3
tp1761
a(I0
I3
tp1762
a(I1
I1
tp1763
a(I1
I3
tp1764
a(I2
I2
tp1765
a(I2
I3
tp1766
a(I3
I3
tp1767
aI00
(dp1768
(dp1769
(dp1770
tp1771
Rp1772
(dp1773
bag1
(I4
(lp1774
(I0
I1
tp1775
a(I0
I2
tp1776
a(I0
I3
tp1777
a(I0
I3
tp1778
a(I1
I1
tp1779
a(I1
I3
tp1780
a(I2
I2
tp1781
a(I2
I2
tp1782
a(I2
I3
tp1783
aI00
(dp1784
(dp1785
(dp1786
tp1787
Rp1788
(dp1789
bag1
(I4
(lp1790
(I0
I1
tp1791
a(I0
I2
tp1792
a(I0
I3
tp1793
a(I0
I3
tp1794
a(I1
I1
tp1795
a(I1
I2
tp1796
a(I2
I2
tp1797
a(I3
I3
tp1798
a(I3
I3
tp1799
aI00
(dp1800
(dp1801
(dp1802
tp1803
Rp1804
(dp1805
bag1
(I4
(lp1806
(I0
I1
tp1807
a(I0
I2
tp1808
a(I0
I3
tp1809
a(I0
I3
tp1810
a(I1
I1
tp1811
a(I1
I2
tp1812
a(I2
I2
tp1813
a(I2
I2
tp1814
a(I3
I3
tp1815
aI00
(dp1816
(dp1817
(dp1818
tp1819
Rp1820
(dp1821
bag1
(I4
(lp1822
(I0
I1
tp1823
a(I0
I1
tp1824
a(I0
I2
tp1825
a(I0
I2
tp1826
a(I0
I3
tp1827
a(I0
I3
tp1828
a(I1
I1
tp1829
a(I2
I2
tp1830
a(I3
I3
tp1831
aI00
(dp1832
(dp1833
(dp1834
tp1835
Rp1836
(dp1837
bag1
(I4
(lp1838
(I0
I0
tp1839
a(I1
I1
tp1840
a(I2
I2
tp1841
a(I3
I3
tp1842
a(I3
I3
tp1843
a(I3
I3
tp1844
a(I3
I3
tp1845
a(I3
I3
tp1846
a(I3
I3
tp1847
aI00
(dp1848
(dp1849
(dp1850
tp1851
Rp1852
(dp1853
bag1
(I4
(lp1854
(I0
I0
tp1855
a(I1
I1
tp1856
a(I2
I2
tp1857
a(I2
I3
tp1858
a(I2
I3
tp1859
a(I3
I3
tp1860
a(I3
I3
tp1861
a(I3
I3
tp1862
a(I3
I3
tp1863
aI00
(dp1864
(dp1865
(dp1866
tp1867
Rp1868
(dp1869
bag1
(I4
(lp1870
(I0
I0
tp1871
a(I1
I1
tp1872
a(I2
I2
tp1873
a(I2
I3
tp1874
a(I2
I3
tp1875
a(I2
I3
tp1876
a(I2
I3
tp1877
a(I3
I3
tp1878
a(I3
I3
tp1879
aI00
(dp1880
(dp1881
(dp1882
tp1883
Rp1884
(dp1885
bag1
(I4
(lp1886
(I0
I0
tp1887
a(I1
I1
tp1888
a(I2
I2
tp1889
a(I2
I2
tp1890
a(I3
I3
tp1891
a(I3
I3
tp1892
a(I3
I3
tp1893
a(I3
I3
tp1894
a(I3
I3
tp1895
aI00
(dp1896
(dp1897
(dp1898
tp1899
Rp1900
(dp1901
bag1
(I4
(lp1902
(I0
I0
tp1903
a(I1
I1
tp1904
a(I2
I2
tp1905
a(I2
I2
tp1906
a(I2
I3
tp1907
a(I2
I3
tp1908
a(I3
I3
tp1909
a(I3
I3
tp1910
a(I3
I3
tp1911
aI00
(dp1912
(dp1913
(dp1914
tp1915
Rp1916
(dp1917
bag1
(I4
(lp1918
(I0
I0
tp1919
a(I1
I1
tp1920
a(I2
I2
tp1921
a(I2
I2
tp1922
a(I2
I2
tp1923
a(I3
I3
tp1924
a(I3
I3
tp1925
a(I3
I3
tp1926
a(I3
I3
tp1927
aI00
(dp1928
(dp1929
(dp1930
tp1931
Rp1932
(dp1933
bag1
(I4
(lp1934
(I0
I0
tp1935
a(I1
I1
tp1936
a(I1
I3
tp1937
a(I1
I3
tp1938
a(I2
I2
tp1939
a(I2
I3
tp1940
a(I2
I3
tp1941
a(I3
I3
tp1942
a(I3
I3
tp1943
aI00
(dp1944
(dp1945
(dp1946
tp1947
Rp1948
(dp1949
bag1
(I4
(lp1950
(I0
I0
tp1951
a(I1
I1
tp1952
a(I1
I3
tp1953
a(I1
I3
tp1954
a(I2
I2
tp1955
a(I2
I2
tp1956
a(I3
I3
tp1957
a(I3
I3
tp1958
a(I3
I3
tp1959
aI00
(dp1960
(dp1961
(dp1962
tp1963
Rp1964
(dp1965
bag1
(I4
(lp1966
(I0
I0
tp1967
a(I1
I1
tp1968
a(I1
I3
tp1969
a(I1
I3
tp1970
a(I2
I2
tp1971
a(I2
I2
tp1972
a(I2
I3
tp1973
a(I2
I3
tp1974
a(I3
I3
tp1975
aI00
(dp1976
(dp1977
(dp1978
tp1979
Rp1980
(dp1981
bag1
(I4
(lp1982
(I0
I0
tp1983
a(I1
I1
tp1984
a(I1
I3
tp1985
a(I1
I3
tp1986
a(I2
I2
tp1987
a(I2
I2
tp1988
a(I2
I2
tp1989
a(I3
I3
tp1990
a(I3
I3
tp1991
aI00
(dp1992
(dp1993
(dp1994
tp1995
Rp1996
(dp1997
bag1
(I4
(lp1998
(I0
I0
tp1999
a(I1
I1
tp2000
a(I1
I3
tp2001
a(I1
I3
tp2002
a(I2
I2
tp2003
a(I2
I2
tp2004
a(I2
I2
tp2005
a(I2
I2
tp2006
a(I3
I3
tp2007
aI00
(dp2008
(dp2009
(dp2010
tp2011
Rp2012
(dp2013
bag1
(I4
(lp2014
(I0
I0
tp2015
a(I1
I1
tp2016
a(I1
I3
tp2017
a(I1
I3
tp2018
a(I1
I3
tp2019
a(I1
I3
tp2020
a(I2
I2
tp2021
a(I2
I2
tp2022
a(I3
I3
tp2023
aI00
(dp2024
(dp2025
(dp2026
tp2027
Rp2028
(dp2029
bag1
(I4
(lp2030
(I0
I0
tp2031
a(I1
I1
tp2032
a(I1
I2
tp2033
a(I1
I3
tp2034
a(I2
I2
tp2035
a(I2
I3
tp2036
a(I3
I3
tp2037
a(I3
I3
tp2038
a(I3
I3
tp2039
aI00
(dp2040
(dp2041
(dp2042
tp2043
Rp2044
(dp2045
bag1
(I4
(lp2046
(I0
I0
tp2047
a(I1
I1
tp2048
a(I1
I2
tp2049
a(I1
I3
tp2050
a(I2
I2
tp2051
a(I2
I3
tp2052
a(I2
I3
tp2053
a(I2
I3
tp2054
a(I3
I3
tp2055
aI00
(dp2056
(dp2057
(dp2058
tp2059
Rp2060
(dp2061
bag1
(I4
(lp2062
(I0
I0
tp2063
a(I1
I1
tp2064
a(I1
I2
tp2065
a(I1
I3
tp2066
a(I2
I2
tp2067
a(I2
I2
tp2068
a(I2
I3
tp2069
a(I3
I3
tp2070
a(I3
I3
tp2071
aI00
(dp2072
(dp2073
(dp2074
tp2075
Rp2076
(dp2077
bag1
(I4
(lp2078
(I0
I0
tp2079
a(I1
I1
tp2080
a(I1
I1
tp2081
a(I2
I2
tp2082
a(I2
I2
tp2083
a(I3
I3
tp2084
a(I3
I3
tp2085
a(I3
I3
tp2086
a(I3
I3
tp2087
aI00
(dp2088
(dp2089
(dp2090
tp2091
Rp2092
(dp2093
bag1
(I4
(lp2094
(I0
I0
tp2095
a(I1
I1
tp2096
a(I1
I1
tp2097
a(I2
I2
tp2098
a(I2
I2
tp2099
a(I2
I3
tp2100
a(I2
I3
tp2101
a(I3
I3
tp2102
a(I3
I3
tp2103
aI00
(dp2104
(dp2105
(dp2106
tp2107
Rp2108
(dp2109
bag1
(I4
(lp2110
(I0
I0
tp2111
a(I1
I1
tp2112
a(I1
I1
tp2113
a(I2
I2
tp2114
a(I2
I2
tp2115
a(I2
I2
tp2116
a(I3
I3
tp2117
a(I3
I3
tp2118
a(I3
I3
tp2119
aI00
(dp2120
(dp2121
(dp2122
tp2123
Rp2124
(dp2125
bag1
(I4
(lp2126
(I0
I0
tp2127
a(I0
I3
tp2128
a(I0
I3
tp2129
a(I1
I1
tp2130
a(I1
I3
tp2131
a(I1
I3
tp2132
a(I2
I2
tp2133
a(I2
I2
tp2134
a(I3
I3
tp2135
aI00
(dp2136
(dp2137
(dp2138
tp2139
Rp2140
(dp2141
bag1
(I4
(lp2142
(I0
I0
tp2143
a(I0
I3
tp2144
a(I0
I3
tp2145
a(I1
I1
tp2146
a(I1
I2
tp2147
a(I1
I3
tp2148
a(I2
I2
tp2149
a(I2
I3
tp2150
a(I3
I3
tp2151
aI00
(dp2152
(dp2153
(dp2154
tp2155
Rp2156
(dp2157
bag1
(I4
(lp2158
(I0
I0
tp2159
a(I0
I3
tp2160
a(I0
I3
tp2161
a(I1
I1
tp2162
a(I1
I2
tp2163
a(I1
I2
tp2164
a(I2
I2
tp2165
a(I3
I3
tp2166
a(I3
I3
tp2167
aI00
(dp2168
(dp2169
(dp2170
tp2171
Rp2172
(dp2173
bag1
(I4
(lp2174
(I0
I0
tp2175
a(I0
I3
tp2176
a(I0
I3
tp2177
a(I1
I1
tp2178
a(I1
I1
tp2179
a(I2
I2
tp2180
a(I2
I2
tp2181
a(I3
I3
tp2182
a(I3
I3
tp2183
aI00
(dp2184
(dp2185
(dp2186
tp2187
Rp2188
(dp2189
bag1
(I4
(lp2190
(I0
I0
tp2191
a(I0
I3
tp2192
a(I0
I3
tp2193
a(I1
I1
tp2194
a(I1
I1
tp2195
a(I2
I2
tp2196
a(I2
I2
tp2197
a(I2
I2
tp2198
a(I3
I3
tp2199
aI00
(dp2200
(dp2201
(dp2202
tp2203
Rp2204
(dp2205
bag1
(I4
(lp2206
(I0
I0
tp2207
a(I0
I2
tp2208
a(I0
I3
tp2209
a(I1
I1
tp2210
a(I1
I2
tp2211
a(I1
I3
tp2212
a(I2
I2
tp2213
a(I3
I3
tp2214
a(I3
I3
tp2215
aI00
(dp2216
(dp2217
(dp2218
tp2219
Rp2220
(dp2221
bag1
(I4
(lp2222
(I0
I0
tp2223
a(I0
I2
tp2224
a(I0
I3
tp2225
a(I1
I1
tp2226
a(I1
I1
tp2227
a(I2
I2
tp2228
a(I2
I3
tp2229
a(I3
I3
tp2230
a(I3
I3
tp2231
aI00
(dp2232
(dp2233
(dp2234
tp2235
Rp2236
(dp2237
bag1
(I4
(lp2238
(I0
I0
tp2239
a(I0
I2
tp2240
a(I0
I3
tp2241
a(I1
I1
tp2242
a(I1
I1
tp2243
a(I1
I1
tp2244
a(I2
I2
tp2245
a(I2
I3
tp2246
a(I3
I3
tp2247
aI00
(dp2248
(dp2249
(dp2250
tp2251
Rp2252
(dp2253
bag1
(I4
(lp2254
(I0
I0
tp2255
a(I0
I0
tp2256
a(I1
I1
tp2257
a(I1
I1
tp2258
a(I2
I2
tp2259
a(I2
I2
tp2260
a(I3
I3
tp2261
a(I3
I3
tp2262
a(I3
I3
tp2263
aI00
(dp2264
(dp2265
(dp2266
tp2267
Rp2268
(dp2269
bag1
(I4
(lp2270
(I0
I3
tp2271
a(I0
I3
tp2272
a(I0
I3
tp2273
a(I0
I3
tp2274
a(I1
I3
tp2275
a(I1
I3
tp2276
a(I1
I3
tp2277
a(I1
I3
tp2278
a(I2
I2
tp2279
a(I3
I3
tp2280
aI00
(dp2281
(dp2282
(dp2283
tp2284
Rp2285
(dp2286
bag1
(I4
(lp2287
(I0
I3
tp2288
a(I0
I3
tp2289
a(I0
I3
tp2290
a(I0
I3
tp2291
a(I1
I3
tp2292
a(I1
I3
tp2293
a(I1
I3
tp2294
a(I1
I3
tp2295
a(I2
I2
tp2296
a(I2
I2
tp2297
aI00
(dp2298
(dp2299
(dp2300
tp2301
Rp2302
(dp2303
bag1
(I4
(lp2304
(I0
I3
tp2305
a(I0
I3
tp2306
a(I0
I3
tp2307
a(I0
I3
tp2308
a(I1
I2
tp2309
a(I1
I3
tp2310
a(I1
I3
tp2311
a(I1
I3
tp2312
a(I2
I2
tp2313
a(I2
I3
tp2314
aI00
(dp2315
(dp2316
(dp2317
tp2318
Rp2319
(dp2320
bag1
(I4
(lp2321
(I0
I3
tp2322
a(I0
I3
tp2323
a(I0
I3
tp2324
a(I0
I3
tp2325
a(I1
I2
tp2326
a(I1
I2
tp2327
a(I1
I3
tp2328
a(I1
I3
tp2329
a(I2
I3
tp2330
a(I2
I3
tp2331
aI00
(dp2332
(dp2333
(dp2334
tp2335
Rp2336
(dp2337
bag1
(I4
(lp2338
(I0
I3
tp2339
a(I0
I3
tp2340
a(I0
I3
tp2341
a(I0
I3
tp2342
a(I1
I2
tp2343
a(I1
I2
tp2344
a(I1
I3
tp2345
a(I1
I3
tp2346
a(I2
I2
tp2347
a(I3
I3
tp2348
aI00
(dp2349
(dp2350
(dp2351
tp2352
Rp2353
(dp2354
bag1
(I4
(lp2355
(I0
I3
tp2356
a(I0
I3
tp2357
a(I0
I3
tp2358
a(I0
I3
tp2359
a(I1
I2
tp2360
a(I1
I2
tp2361
a(I1
I3
tp2362
a(I1
I3
tp2363
a(I2
I2
tp2364
a(I2
I2
tp2365
aI00
(dp2366
(dp2367
(dp2368
tp2369
Rp2370
(dp2371
bag1
(I4
(lp2372
(I0
I3
tp2373
a(I0
I3
tp2374
a(I0
I3
tp2375
a(I0
I3
tp2376
a(I1
I2
tp2377
a(I1
I2
tp2378
a(I1
I2
tp2379
a(I1
I3
tp2380
a(I2
I3
tp2381
a(I3
I3
tp2382
aI00
(dp2383
(dp2384
(dp2385
tp2386
Rp2387
(dp2388
bag1
(I4
(lp2389
(I0
I3
tp2390
a(I0
I3
tp2391
a(I0
I3
tp2392
a(I0
I3
tp2393
a(I1
I2
tp2394
a(I1
I2
tp2395
a(I1
I2
tp2396
a(I1
I3
tp2397
a(I2
I2
tp2398
a(I2
I3
tp2399
aI00
(dp2400
(dp2401
(dp2402
tp2403
Rp2404
(dp2405
bag1
(I4
(lp2406
(I0
I3
tp2407
a(I0
I3
tp2408
a(I0
I3
tp2409
a(I0
I3
tp2410
a(I1
I2
tp2411
a(I1
I2
tp2412
a(I1
I2
tp2413
a(I1
I2
tp2414
a(I3
I3
tp2415
a(I3
I3
tp2416
aI00
(dp2417
(dp2418
(dp2419
tp2420
Rp2421
(dp2422
bag1
(I4
(lp2423
(I0
I3
tp2424
a(I0
I3
tp2425
a(I0
I3
tp2426
a(I0
I3
tp2427
a(I1
I2
tp2428
a(I1
I2
tp2429
a(I1
I2
tp2430
a(I1
I2
tp2431
a(I2
I3
tp2432
a(I2
I3
tp2433
aI00
(dp2434
(dp2435
(dp2436
tp2437
Rp2438
(dp2439
bag1
(I4
(lp2440
(I0
I3
tp2441
a(I0
I3
tp2442
a(I0
I3
tp2443
a(I0
I3
tp2444
a(I1
I2
tp2445
a(I1
I2
tp2446
a(I1
I2
tp2447
a(I1
I2
tp2448
a(I2
I2
tp2449
a(I3
I3
tp2450
aI00
(dp2451
(dp2452
(dp2453
tp2454
Rp2455
(dp2456
bag1
(I4
(lp2457
(I0
I3
tp2458
a(I0
I3
tp2459
a(I0
I3
tp2460
a(I0
I3
tp2461
a(I1
I2
tp2462
a(I1
I2
tp2463
a(I1
I2
tp2464
a(I1
I2
tp2465
a(I1
I2
tp2466
a(I1
I2
tp2467
aI00
(dp2468
(dp2469
(dp2470
tp2471
Rp2472
(dp2473
bag1
(I4
(lp2474
(I0
I3
tp2475
a(I0
I3
tp2476
a(I0
I3
tp2477
a(I0
I3
tp2478
a(I1
I1
tp2479
a(I2
I2
tp2480
a(I3
I3
tp2481
a(I3
I3
tp2482
a(I3
I3
tp2483
a(I3
I3
tp2484
aI00
(dp2485
(dp2486
(dp2487
tp2488
Rp2489
(dp2490
bag1
(I4
(lp2491
(I0
I3
tp2492
a(I0
I3
tp2493
a(I0
I3
tp2494
a(I0
I3
tp2495
a(I1
I1
tp2496
a(I2
I2
tp2497
a(I2
I3
tp2498
a(I2
I3
tp2499
a(I3
I3
tp2500
a(I3
I3
tp2501
aI00
(dp2502
(dp2503
(dp2504
tp2505
Rp2506
(dp2507
bag1
(I4
(lp2508
(I0
I3
tp2509
a(I0
I3
tp2510
a(I0
I3
tp2511
a(I0
I3
tp2512
a(I1
I1
tp2513
a(I2
I2
tp2514
a(I2
I3
tp2515
a(I2
I3
tp2516
a(I2
I3
tp2517
a(I2
I3
tp2518
aI00
(dp2519
(dp2520
(dp2521
tp2522
Rp2523
(dp2524
bag1
(I4
(lp2525
(I0
I3
tp2526
a(I0
I3
tp2527
a(I0
I3
tp2528
a(I0
I3
tp2529
a(I1
I1
tp2530
a(I2
I2
tp2531
a(I2
I2
tp2532
a(I3
I3
tp2533
a(I3
I3
tp2534
a(I3
I3
tp2535
aI00
(dp2536
(dp2537
(dp2538
tp2539
Rp2540
(dp2541
bag1
(I4
(lp2542
(I0
I3
tp2543
a(I0
I3
tp2544
a(I0
I3
tp2545
a(I0
I3
tp2546
a(I1
I1
tp2547
a(I2
I2
tp2548
a(I2
I2
tp2549
a(I2
I3
tp2550
a(I2
I3
tp2551
a(I3
I3
tp2552
aI00
(dp2553
(dp2554
(dp2555
tp2556
Rp2557
(dp2558
bag1
(I4
(lp2559
(I0
I3
tp2560
a(I0
I3
tp2561
a(I0
I3
tp2562
a(I0
I3
tp2563
a(I1
I1
tp2564
a(I2
I2
tp2565
a(I2
I2
tp2566
a(I2
I2
tp2567
a(I3
I3
tp2568
a(I3
I3
tp2569
aI00
(dp2570
(dp2571
(dp2572
tp2573
Rp2574
(dp2575
bag1
(I4
(lp2576
(I0
I3
tp2577
a(I0
I3
tp2578
a(I0
I3
tp2579
a(I0
I3
tp2580
a(I1
I1
tp2581
a(I2
I2
tp2582
a(I2
I2
tp2583
a(I2
I2
tp2584
a(I2
I3
tp2585
a(I2
I3
tp2586
aI00
(dp2587
(dp2588
(dp2589
tp2590
Rp2591
(dp2592
bag1
(I4
(lp2593
(I0
I3
tp2594
a(I0
I3
tp2595
a(I0
I3
tp2596
a(I0
I3
tp2597
a(I1
I1
tp2598
a(I2
I2
tp2599
a(I2
I2
tp2600
a(I2
I2
tp2601
a(I2
I2
tp2602
a(I3
I3
tp2603
aI00
(dp2604
(dp2605
(dp2606
tp2607
Rp2608
(dp2609
bag1
(I4
(lp2610
(I0
I3
tp2611
a(I0
I3
tp2612
a(I0
I3
tp2613
a(I0
I3
tp2614
a(I1
I1
tp2615
a(I2
I2
tp2616
a(I2
I2
tp2617
a(I2
I2
tp2618
a(I2
I2
tp2619
a(I2
I2
tp2620
aI00
(dp2621
(dp2622
(dp2623
tp2624
Rp2625
(dp2626
bag1
(I4
(lp2627
(I0
I3
tp2628
a(I0
I3
tp2629
a(I0
I3
tp2630
a(I0
I3
tp2631
a(I1
I1
tp2632
a(I1
I3
tp2633
a(I1
I3
tp2634
a(I2
I2
tp2635
a(I2
I3
tp2636
a(I2
I3
tp2637
aI00
(dp2638
(dp2639
(dp2640
tp2641
Rp2642
(dp2643
bag1
(I4
(lp2644
(I0
I3
tp2645
a(I0
I3
tp2646
a(I0
I3
tp2647
a(I0
I3
tp2648
a(I1
I1
tp2649
a(I1
I3
tp2650
a(I1
I3
tp2651
a(I2
I2
tp2652
a(I2
I2
tp2653
a(I3
I3
tp2654
aI00
(dp2655
(dp2656
(dp2657
tp2658
Rp2659
(dp2660
bag1
(I4
(lp2661
(I0
I3
tp2662
a(I0
I3
tp2663
a(I0
I3
tp2664
a(I0
I3
tp2665
a(I1
I1
tp2666
a(I1
I3
tp2667
a(I1
I3
tp2668
a(I2
I2
tp2669
a(I2
I2
tp2670
a(I2
I2
tp2671
aI00
(dp2672
(dp2673
(dp2674
tp2675
Rp2676
(dp2677
bag1
(I4
(lp2678
(I0
I3
tp2679
a(I0
I3
tp2680
a(I0
I3
tp2681
a(I0
I3
tp2682
a(I1
I1
tp2683
a(I1
I2
tp2684
a(I1
I3
tp2685
a(I2
I2
tp2686
a(I2
I3
tp2687
a(I3
I3
tp2688
aI00
(dp2689
(dp2690
(dp2691
tp2692
Rp2693
(dp2694
bag1
(I4
(lp2695
(I0
I3
tp2696
a(I0
I3
tp2697
a(I0
I3
tp2698
a(I0
I3
tp2699
a(I1
I1
tp2700
a(I1
I2
tp2701
a(I1
I3
tp2702
a(I2
I2
tp2703
a(I2
I2
tp2704
a(I2
I3
tp2705
aI00
(dp2706
(dp2707
(dp2708
tp2709
Rp2710
(dp2711
bag1
(I4
(lp2712
(I0
I3
tp2713
a(I0
I3
tp2714
a(I0
I3
tp2715
a(I0
I3
tp2716
a(I1
I1
tp2717
a(I1
I2
tp2718
a(I1
I2
tp2719
a(I2
I2
tp2720
a(I3
I3
tp2721
a(I3
I3
tp2722
aI00
(dp2723
(dp2724
(dp2725
tp2726
Rp2727
(dp2728
bag1
(I4
(lp2729
(I0
I3
tp2730
a(I0
I3
tp2731
a(I0
I3
tp2732
a(I0
I3
tp2733
a(I1
I1
tp2734
a(I1
I2
tp2735
a(I1
I2
tp2736
a(I2
I2
tp2737
a(I2
I3
tp2738
a(I2
I3
tp2739
aI00
(dp2740
(dp2741
(dp2742
tp2743
Rp2744
(dp2745
bag1
(I4
(lp2746
(I0
I3
tp2747
a(I0
I3
tp2748
a(I0
I3
tp2749
a(I0
I3
tp2750
a(I1
I1
tp2751
a(I1
I2
tp2752
a(I1
I2
tp2753
a(I2
I2
tp2754
a(I2
I2
tp2755
a(I3
I3
tp2756
aI00
(dp2757
(dp2758
(dp2759
tp2760
Rp2761
(dp2762
bag1
(I4
(lp2763
(I0
I3
tp2764
a(I0
I3
tp2765
a(I0
I3
tp2766
a(I0
I3
tp2767
a(I1
I1
tp2768
a(I1
I2
tp2769
a(I1
I2
tp2770
a(I2
I2
tp2771
a(I2
I2
tp2772
a(I2
I2
tp2773
aI00
(dp2774
(dp2775
(dp2776
tp2777
Rp2778
(dp2779
bag1
(I4
(lp2780
(I0
I3
tp2781
a(I0
I3
tp2782
a(I0
I3
tp2783
a(I0
I3
tp2784
a(I1
I1
tp2785
a(I1
I2
tp2786
a(I1
I2
tp2787
a(I1
I2
tp2788
a(I1
I2
tp2789
a(I2
I2
tp2790
aI00
(dp2791
(dp2792
(dp2793
tp2794
Rp2795
(dp2796
bag1
(I4
(lp2797
(I0
I3
tp2798
a(I0
I3
tp2799
a(I0
I3
tp2800
a(I0
I3
tp2801
a(I1
I1
tp2802
a(I1
I1
tp2803
a(I2
I2
tp2804
a(I2
I2
tp2805
a(I3
I3
tp2806
a(I3
I3
tp2807
aI00
(dp2808
(dp2809
(dp2810
tp2811
Rp2812
(dp2813
bag1
(I4
(lp2814
(I0
I3
tp2815
a(I0
I3
tp2816
a(I0
I3
tp2817
a(I0
I3
tp2818
a(I1
I1
tp2819
a(I1
I1
tp2820
a(I2
I2
tp2821
a(I2
I2
tp2822
a(I2
I3
tp2823
a(I2
I3
tp2824
aI00
(dp2825
(dp2826
(dp2827
tp2828
Rp2829
(dp2830
bag1
(I4
(lp2831
(I0
I3
tp2832
a(I0
I3
tp2833
a(I0
I3
tp2834
a(I0
I3
tp2835
a(I1
I1
tp2836
a(I1
I1
tp2837
a(I2
I2
tp2838
a(I2
I2
tp2839
a(I2
I2
tp2840
a(I3
I3
tp2841
aI00
(dp2842
(dp2843
(dp2844
tp2845
Rp2846
(dp2847
bag1
(I4
(lp2848
(I0
I3
tp2849
a(I0
I3
tp2850
a(I0
I3
tp2851
a(I0
I3
tp2852
a(I1
I1
tp2853
a(I1
I1
tp2854
a(I2
I2
tp2855
a(I2
I2
tp2856
a(I2
I2
tp2857
a(I2
I2
tp2858
aI00
(dp2859
(dp2860
(dp2861
tp2862
Rp2863
(dp2864
bag1
(I4
(lp2865
(I0
I3
tp2866
a(I0
I3
tp2867
a(I0
I3
tp2868
a(I0
I3
tp2869
a(I1
I1
tp2870
a(I1
I1
tp2871
a(I1
I2
tp2872
a(I1
I2
tp2873
a(I2
I2
tp2874
a(I2
I2
tp2875
aI00
(dp2876
(dp2877
(dp2878
tp2879
Rp2880
(dp2881
bag1
(I4
(lp2882
(I0
I3
tp2883
a(I0
I3
tp2884
a(I0
I3
tp2885
a(I0
I3
tp2886
a(I1
I1
tp2887
a(I1
I1
tp2888
a(I1
I1
tp2889
a(I2
I2
tp2890
a(I2
I2
tp2891
a(I2
I2
tp2892
aI00
(dp2893
(dp2894
(dp2895
tp2896
Rp2897
(dp2898
bag1
(I4
(lp2899
(I0
I3
tp2900
a(I0
I3
tp2901
a(I0
I3
tp2902
a(I0
I3
tp2903
a(I0
I3
tp2904
a(I0
I3
tp2905
a(I1
I1
tp2906
a(I2
I2
tp2907
a(I3
I3
tp2908
a(I3
I3
tp2909
aI00
(dp2910
(dp2911
(dp2912
tp2913
Rp2914
(dp2915
bag1
(I4
(lp2916
(I0
I3
tp2917
a(I0
I3
tp2918
a(I0
I3
tp2919
a(I0
I3
tp2920
a(I0
I3
tp2921
a(I0
I3
tp2922
a(I1
I1
tp2923
a(I2
I2
tp2924
a(I2
I3
tp2925
a(I2
I3
tp2926
aI00
(dp2927
(dp2928
(dp2929
tp2930
Rp2931
(dp2932
bag1
(I4
(lp2933
(I0
I3
tp2934
a(I0
I3
tp2935
a(I0
I3
tp2936
a(I0
I3
tp2937
a(I0
I3
tp2938
a(I0
I3
tp2939
a(I1
I1
tp2940
a(I2
I2
tp2941
a(I2
I2
tp2942
a(I3
I3
tp2943
aI00
(dp2944
(dp2945
(dp2946
tp2947
Rp2948
(dp2949
bag1
(I4
(lp2950
(I0
I3
tp2951
a(I0
I3
tp2952
a(I0
I3
tp2953
a(I0
I3
tp2954
a(I0
I3
tp2955
a(I0
I3
tp2956
a(I1
I1
tp2957
a(I2
I2
tp2958
a(I2
I2
tp2959
a(I2
I2
tp2960
aI00
(dp2961
(dp2962
(dp2963
tp2964
Rp2965
(dp2966
bag1
(I4
(lp2967
(I0
I3
tp2968
a(I0
I3
tp2969
a(I0
I3
tp2970
a(I0
I3
tp2971
a(I0
I3
tp2972
a(I0
I3
tp2973
a(I1
I1
tp2974
a(I1
I2
tp2975
a(I1
I2
tp2976
a(I2
I2
tp2977
aI00
(dp2978
(dp2979
(dp2980
tp2981
Rp2982
(dp2983
bag1
(I4
(lp2984
(I0
I3
tp2985
a(I0
I3
tp2986
a(I0
I3
tp2987
a(I0
I3
tp2988
a(I0
I3
tp2989
a(I0
I3
tp2990
a(I1
I1
tp2991
a(I1
I1
tp2992
a(I2
I2
tp2993
a(I2
I2
tp2994
aI00
(dp2995
(dp2996
(dp2997
tp2998
Rp2999
(dp3000
bag1
(I4
(lp3001
(I0
I3
tp3002
a(I0
I3
tp3003
a(I0
I3
tp3004
a(I0
I3
tp3005
a(I0
I3
tp3006
a(I0
I3
tp3007
a(I0
I3
tp3008
a(I0
I3
tp3009
a(I1
I1
tp3010
a(I2
I2
tp3011
aI00
(dp3012
(dp3013
(dp3014
tp3015
Rp3016
(dp3017
bag1
(I4
(lp3018
(I0
I2
tp3019
a(I0
I3
tp3020
a(I0
I3
tp3021
a(I0
I3
tp3022
a(I1
I2
tp3023
a(I1
I3
tp3024
a(I1
I3
tp3025
a(I1
I3
tp3026
a(I2
I3
tp3027
a(I2
I3
tp3028
aI00
(dp3029
(dp3030
(dp3031
tp3032
Rp3033
(dp3034
bag1
(I4
(lp3035
(I0
I2
tp3036
a(I0
I3
tp3037
a(I0
I3
tp3038
a(I0
I3
tp3039
a(I1
I2
tp3040
a(I1
I3
tp3041
a(I1
I3
tp3042
a(I1
I3
tp3043
a(I2
I2
tp3044
a(I3
I3
tp3045
aI00
(dp3046
(dp3047
(dp3048
tp3049
Rp3050
(dp3051
bag1
(I4
(lp3052
(I0
I2
tp3053
a(I0
I3
tp3054
a(I0
I3
tp3055
a(I0
I3
tp3056
a(I1
I2
tp3057
a(I1
I3
tp3058
a(I1
I3
tp3059
a(I1
I3
tp3060
a(I2
I2
tp3061
a(I2
I2
tp3062
aI00
(dp3063
(dp3064
(dp3065
tp3066
Rp3067
(dp3068
bag1
(I4
(lp3069
(I0
I2
tp3070
a(I0
I3
tp3071
a(I0
I3
tp3072
a(I0
I3
tp3073
a(I1
I2
tp3074
a(I1
I2
tp3075
a(I1
I3
tp3076
a(I1
I3
tp3077
a(I2
I3
tp3078
a(I3
I3
tp3079
aI00
(dp3080
(dp3081
(dp3082
tp3083
Rp3084
(dp3085
bag1
(I4
(lp3086
(I0
I2
tp3087
a(I0
I3
tp3088
a(I0
I3
tp3089
a(I0
I3
tp3090
a(I1
I2
tp3091
a(I1
I2
tp3092
a(I1
I3
tp3093
a(I1
I3
tp3094
a(I2
I2
tp3095
a(I2
I3
tp3096
aI00
(dp3097
(dp3098
(dp3099
tp3100
Rp3101
(dp3102
bag1
(I4
(lp3103
(I0
I2
tp3104
a(I0
I3
tp3105
a(I0
I3
tp3106
a(I0
I3
tp3107
a(I1
I2
tp3108
a(I1
I2
tp3109
a(I1
I2
tp3110
a(I1
I3
tp3111
a(I3
I3
tp3112
a(I3
I3
tp3113
aI00
(dp3114
(dp3115
(dp3116
tp3117
Rp3118
(dp3119
bag1
(I4
(lp3120
(I0
I2
tp3121
a(I0
I3
tp3122
a(I0
I3
tp3123
a(I0
I3
tp3124
a(I1
I2
tp3125
a(I1
I2
tp3126
a(I1
I2
tp3127
a(I1
I3
tp3128
a(I2
I3
tp3129
a(I2
I3
tp3130
aI00
(dp3131
(dp3132
(dp3133
tp3134
Rp3135
(dp3136
bag1
(I4
(lp3137
(I0
I2
tp3138
a(I0
I3
tp3139
a(I0
I3
tp3140
a(I0
I3
tp3141
a(I1
I2
tp3142
a(I1
I2
tp3143
a(I1
I2
tp3144
a(I1
I3
tp3145
a(I2
I2
tp3146
a(I3
I3
tp3147
aI00
(dp3148
(dp3149
(dp3150
tp3151
Rp3152
(dp3153
bag1
(I4
(lp3154
(I0
I2
tp3155
a(I0
I3
tp3156
a(I0
I3
tp3157
a(I0
I3
tp3158
a(I1
I2
tp3159
a(I1
I2
tp3160
a(I1
I2
tp3161
a(I1
I3
tp3162
a(I1
I3
tp3163
a(I1
I3
tp3164
aI00
(dp3165
(dp3166
(dp3167
tp3168
Rp3169
(dp3170
bag1
(I4
(lp3171
(I0
I2
tp3172
a(I0
I3
tp3173
a(I0
I3
tp3174
a(I0
I3
tp3175
a(I1
I2
tp3176
a(I1
I2
tp3177
a(I1
I2
tp3178
a(I1
I2
tp3179
a(I1
I2
tp3180
a(I1
I3
tp3181
aI00
(dp3182
(dp3183
(dp3184
tp3185
Rp3186
(dp3187
bag1
(I4
(lp3188
(I0
I2
tp3189
a(I0
I3
tp3190
a(I0
I3
tp3191
a(I0
I3
tp3192
a(I1
I1
tp3193
a(I2
I3
tp3194
a(I2
I3
tp3195
a(I2
I3
tp3196
a(I3
I3
tp3197
a(I3
I3
tp3198
aI00
(dp3199
(dp3200
(dp3201
tp3202
Rp3203
(dp3204
bag1
(I4
(lp3205
(I0
I2
tp3206
a(I0
I3
tp3207
a(I0
I3
tp3208
a(I0
I3
tp3209
a(I1
I1
tp3210
a(I2
I3
tp3211
a(I2
I3
tp3212
a(I2
I3
tp3213
a(I2
I3
tp3214
a(I2
I3
tp3215
aI00
(dp3216
(dp3217
(dp3218
tp3219
Rp3220
(dp3221
bag1
(I4
(lp3222
(I0
I2
tp3223
a(I0
I3
tp3224
a(I0
I3
tp3225
a(I0
I3
tp3226
a(I1
I1
tp3227
a(I2
I2
tp3228
a(I2
I3
tp3229
a(I3
I3
tp3230
a(I3
I3
tp3231
a(I3
I3
tp3232
aI00
(dp3233
(dp3234
(dp3235
tp3236
Rp3237
(dp3238
bag1
(I4
(lp3239
(I0
I2
tp3240
a(I0
I3
tp3241
a(I0
I3
tp3242
a(I0
I3
tp3243
a(I1
I1
tp3244
a(I2
I2
tp3245
a(I2
I3
tp3246
a(I2
I3
tp3247
a(I2
I3
tp3248
a(I3
I3
tp3249
aI00
(dp3250
(dp3251
(dp3252
tp3253
Rp3254
(dp3255
bag1
(I4
(lp3256
(I0
I2
tp3257
a(I0
I3
tp3258
a(I0
I3
tp3259
a(I0
I3
tp3260
a(I1
I1
tp3261
a(I2
I2
tp3262
a(I2
I2
tp3263
a(I2
I3
tp3264
a(I3
I3
tp3265
a(I3
I3
tp3266
aI00
(dp3267
(dp3268
(dp3269
tp3270
Rp3271
(dp3272
bag1
(I4
(lp3273
(I0
I2
tp3274
a(I0
I3
tp3275
a(I0
I3
tp3276
a(I0
I3
tp3277
a(I1
I1
tp3278
a(I2
I2
tp3279
a(I2
I2
tp3280
a(I2
I3
tp3281
a(I2
I3
tp3282
a(I2
I3
tp3283
aI00
(dp3284
(dp3285
(dp3286
tp3287
Rp3288
(dp3289
bag1
(I4
(lp3290
(I0
I2
tp3291
a(I0
I3
tp3292
a(I0
I3
tp3293
a(I0
I3
tp3294
a(I1
I1
tp3295
a(I2
I2
tp3296
a(I2
I2
tp3297
a(I2
I2
tp3298
a(I2
I3
tp3299
a(I3
I3
tp3300
aI00
(dp3301
(dp3302
(dp3303
tp3304
Rp3305
(dp3306
bag1
(I4
(lp3307
(I0
I2
tp3308
a(I0
I3
tp3309
a(I0
I3
tp3310
a(I0
I3
tp3311
a(I1
I1
tp3312
a(I2
I2
tp3313
a(I2
I2
tp3314
a(I2
I2
tp3315
a(I2
I2
tp3316
a(I2
I3
tp3317
aI00
(dp3318
(dp3319
(dp3320
tp3321
Rp3322
(dp3323
bag1
(I4
(lp3324
(I0
I2
tp3325
a(I0
I3
tp3326
a(I0
I3
tp3327
a(I0
I3
tp3328
a(I1
I1
tp3329
a(I1
I3
tp3330
a(I1
I3
tp3331
a(I2
I3
tp3332
a(I2
I3
tp3333
a(I2
I3
tp3334
aI00
(dp3335
(dp3336
(dp3337
tp3338
Rp3339
(dp3340
bag1
(I4
(lp3341
(I0
I2
tp3342
a(I0
I3
tp3343
a(I0
I3
tp3344
a(I0
I3
tp3345
a(I1
I1
tp3346
a(I1
I3
tp3347
a(I1
I3
tp3348
a(I2
I2
tp3349
a(I2
I3
tp3350
a(I3
I3
tp3351
aI00
(dp3352
(dp3353
(dp3354
tp3355
Rp3356
(dp3357
bag1
(I4
(lp3358
(I0
I2
tp3359
a(I0
I3
tp3360
a(I0
I3
tp3361
a(I0
I3
tp3362
a(I1
I1
tp3363
a(I1
I3
tp3364
a(I1
I3
tp3365
a(I2
I2
tp3366
a(I2
I2
tp3367
a(I2
I3
tp3368
aI00
(dp3369
(dp3370
(dp3371
tp3372
Rp3373
(dp3374
bag1
(I4
(lp3375
(I0
I2
tp3376
a(I0
I3
tp3377
a(I0
I3
tp3378
a(I0
I3
tp3379
a(I1
I1
tp3380
a(I1
I2
tp3381
a(I1
I3
tp3382
a(I2
I3
tp3383
a(I2
I3
tp3384
a(I3
I3
tp3385
aI00
(dp3386
(dp3387
(dp3388
tp3389
Rp3390
(dp3391
bag1
(I4
(lp3392
(I0
I2
tp3393
a(I0
I3
tp3394
a(I0
I3
tp3395
a(I0
I3
tp3396
a(I1
I1
tp3397
a(I1
I2
tp3398
a(I1
I3
tp3399
a(I2
I2
tp3400
a(I3
I3
tp3401
a(I3
I3
tp3402
aI00
(dp3403
(dp3404
(dp3405
tp3406
Rp3407
(dp3408
bag1
(I4
(lp3409
(I0
I2
tp3410
a(I0
I3
tp3411
a(I0
I3
tp3412
a(I0
I3
tp3413
a(I1
I1
tp3414
a(I1
I2
tp3415
a(I1
I3
tp3416
a(I2
I2
tp3417
a(I2
I3
tp3418
a(I2
I3
tp3419
aI00
(dp3420
(dp3421
(dp3422
tp3423
Rp3424
(dp3425
bag1
(I4
(lp3426
(I0
I2
tp3427
a(I0
I3
tp3428
a(I0
I3
tp3429
a(I0
I3
tp3430
a(I1
I1
tp3431
a(I1
I2
tp3432
a(I1
I3
tp3433
a(I2
I2
tp3434
a(I2
I2
tp3435
a(I3
I3
tp3436
aI00
(dp3437
(dp3438
(dp3439
tp3440
Rp3441
(dp3442
bag1
(I4
(lp3443
(I0
I2
tp3444
a(I0
I3
tp3445
a(I0
I3
tp3446
a(I0
I3
tp3447
a(I1
I1
tp3448
a(I1
I2
tp3449
a(I1
I3
tp3450
a(I2
I2
tp3451
a(I2
I2
tp3452
a(I2
I2
tp3453
aI00
(dp3454
(dp3455
(dp3456
tp3457
Rp3458
(dp3459
bag1
(I4
(lp3460
(I0
I2
tp3461
a(I0
I3
tp3462
a(I0
I3
tp3463
a(I0
I3
tp3464
a(I1
I1
tp3465
a(I1
I2
tp3466
a(I1
I3
tp3467
a(I1
I3
tp3468
a(I1
I3
tp3469
a(I2
I2
tp3470
aI00
(dp3471
(dp3472
(dp3473
tp3474
Rp3475
(dp3476
bag1
(I4
(lp3477
(I0
I2
tp3478
a(I0
I3
tp3479
a(I0
I3
tp3480
a(I0
I3
tp3481
a(I1
I1
tp3482
a(I1
I2
tp3483
a(I1
I2
tp3484
a(I2
I3
tp3485
a(I3
I3
tp3486
a(I3
I3
tp3487
aI00
(dp3488
(dp3489
(dp3490
tp3491
Rp3492
(dp3493
bag1
(I4
(lp3494
(I0
I2
tp3495
a(I0
I3
tp3496
a(I0
I3
tp3497
a(I0
I3
tp3498
a(I1
I1
tp3499
a(I1
I2
tp3500
a(I1
I2
tp3501
a(I2
I3
tp3502
a(I2
I3
tp3503
a(I2
I3
tp3504
aI00
(dp3505
(dp3506
(dp3507
tp3508
Rp3509
(dp3510
bag1
(I4
(lp3511
(I0
I2
tp3512
a(I0
I3
tp3513
a(I0
I3
tp3514
a(I0
I3
tp3515
a(I1
I1
tp3516
a(I1
I2
tp3517
a(I1
I2
tp3518
a(I2
I2
tp3519
a(I2
I3
tp3520
a(I3
I3
tp3521
aI00
(dp3522
(dp3523
(dp3524
tp3525
Rp3526
(dp3527
bag1
(I4
(lp3528
(I0
I2
tp3529
a(I0
I3
tp3530
a(I0
I3
tp3531
a(I0
I3
tp3532
a(I1
I1
tp3533
a(I1
I2
tp3534
a(I1
I2
tp3535
a(I2
I2
tp3536
a(I2
I2
tp3537
a(I2
I3
tp3538
aI00
(dp3539
(dp3540
(dp3541
tp3542
Rp3543
(dp3544
bag1
(I4
(lp3545
(I0
I2
tp3546
a(I0
I3
tp3547
a(I0
I3
tp3548
a(I0
I3
tp3549
a(I1
I1
tp3550
a(I1
I2
tp3551
a(I1
I2
tp3552
a(I1
I3
tp3553
a(I1
I3
tp3554
a(I2
I3
tp3555
aI00
(dp3556
(dp3557
(dp3558
tp3559
Rp3560
(dp3561
bag1
(I4
(lp3562
(I0
I2
tp3563
a(I0
I3
tp3564
a(I0
I3
tp3565
a(I0
I3
tp3566
a(I1
I1
tp3567
a(I1
I2
tp3568
a(I1
I2
tp3569
a(I1
I2
tp3570
a(I1
I3
tp3571
a(I3
I3
tp3572
aI00
(dp3573
(dp3574
(dp3575
tp3576
Rp3577
(dp3578
bag1
(I4
(lp3579
(I0
I2
tp3580
a(I0
I3
tp3581
a(I0
I3
tp3582
a(I0
I3
tp3583
a(I1
I1
tp3584
a(I1
I2
tp3585
a(I1
I2
tp3586
a(I1
I2
tp3587
a(I1
I3
tp3588
a(I2
I2
tp3589
aI00
(dp3590
(dp3591
(dp3592
tp3593
Rp3594
(dp3595
bag1
(I4
(lp3596
(I0
I2
tp3597
a(I0
I3
tp3598
a(I0
I3
tp3599
a(I0
I3
tp3600
a(I1
I1
tp3601
a(I1
I2
tp3602
a(I1
I2
tp3603
a(I1
I2
tp3604
a(I1
I2
tp3605
a(I2
I3
tp3606
aI00
(dp3607
(dp3608
(dp3609
tp3610
Rp3611
(dp3612
bag1
(I4
(lp3613
(I0
I2
tp3614
a(I0
I3
tp3615
a(I0
I3
tp3616
a(I0
I3
tp3617
a(I1
I1
tp3618
a(I1
I1
tp3619
a(I2
I3
tp3620
a(I2
I3
tp3621
a(I2
I3
tp3622
a(I3
I3
tp3623
aI00
(dp3624
(dp3625
(dp3626
tp3627
Rp3628
(dp3629
bag1
(I4
(lp3630
(I0
I2
tp3631
a(I0
I3
tp3632
a(I0
I3
tp3633
a(I0
I3
tp3634
a(I1
I1
tp3635
a(I1
I1
tp3636
a(I2
I2
tp3637
a(I2
I3
tp3638
a(I3
I3
tp3639
a(I3
I3
tp3640
aI00
(dp3641
(dp3642
(dp3643
tp3644
Rp3645
(dp3646
bag1
(I4
(lp3647
(I0
I2
tp3648
a(I0
I3
tp3649
a(I0
I3
tp3650
a(I0
I3
tp3651
a(I1
I1
tp3652
a(I1
I1
tp3653
a(I2
I2
tp3654
a(I2
I3
tp3655
a(I2
I3
tp3656
a(I2
I3
tp3657
aI00
(dp3658
(dp3659
(dp3660
tp3661
Rp3662
(dp3663
bag1
(I4
(lp3664
(I0
I2
tp3665
a(I0
I3
tp3666
a(I0
I3
tp3667
a(I0
I3
tp3668
a(I1
I1
tp3669
a(I1
I1
tp3670
a(I2
I2
tp3671
a(I2
I2
tp3672
a(I2
I3
tp3673
a(I3
I3
tp3674
aI00
(dp3675
(dp3676
(dp3677
tp3678
Rp3679
(dp3680
bag1
(I4
(lp3681
(I0
I2
tp3682
a(I0
I3
tp3683
a(I0
I3
tp3684
a(I0
I3
tp3685
a(I1
I1
tp3686
a(I1
I1
tp3687
a(I2
I2
tp3688
a(I2
I2
tp3689
a(I2
I2
tp3690
a(I2
I3
tp3691
aI00
(dp3692
(dp3693
(dp3694
tp3695
Rp3696
(dp3697
bag1
(I4
(lp3698
(I0
I2
tp3699
a(I0
I3
tp3700
a(I0
I3
tp3701
a(I0
I3
tp3702
a(I1
I1
tp3703
a(I1
I1
tp3704
a(I1
I3
tp3705
a(I1
I3
tp3706
a(I2
I2
tp3707
a(I2
I3
tp3708
aI00
(dp3709
(dp3710
(dp3711
tp3712
Rp3713
(dp3714
bag1
(I4
(lp3715
(I0
I2
tp3716
a(I0
I3
tp3717
a(I0
I3
tp3718
a(I0
I3
tp3719
a(I1
I1
tp3720
a(I1
I1
tp3721
a(I1
I2
tp3722
a(I1
I3
tp3723
a(I2
I3
tp3724
a(I2
I3
tp3725
aI00
(dp3726
(dp3727
(dp3728
tp3729
Rp3730
(dp3731
bag1
(I4
(lp3732
(I0
I2
tp3733
a(I0
I3
tp3734
a(I0
I3
tp3735
a(I0
I3
tp3736
a(I1
I1
tp3737
a(I1
I1
tp3738
a(I1
I2
tp3739
a(I1
I3
tp3740
a(I2
I2
tp3741
a(I3
I3
tp3742
aI00
(dp3743
(dp3744
(dp3745
tp3746
Rp3747
(dp3748
bag1
(I4
(lp3749
(I0
I2
tp3750
a(I0
I3
tp3751
a(I0
I3
tp3752
a(I0
I3
tp3753
a(I1
I1
tp3754
a(I1
I1
tp3755
a(I1
I2
tp3756
a(I1
I3
tp3757
a(I2
I2
tp3758
a(I2
I2
tp3759
aI00
(dp3760
(dp3761
(dp3762
tp3763
Rp3764
(dp3765
bag1
(I4
(lp3766
(I0
I2
tp3767
a(I0
I3
tp3768
a(I0
I3
tp3769
a(I0
I3
tp3770
a(I1
I1
tp3771
a(I1
I1
tp3772
a(I1
I2
tp3773
a(I1
I2
tp3774
a(I2
I3
tp3775
a(I3
I3
tp3776
aI00
(dp3777
(dp3778
(dp3779
tp3780
Rp3781
(dp3782
bag1
(I4
(lp3783
(I0
I2
tp3784
a(I0
I3
tp3785
a(I0
I3
tp3786
a(I0
I3
tp3787
a(I1
I1
tp3788
a(I1
I1
tp3789
a(I1
I2
tp3790
a(I1
I2
tp3791
a(I2
I2
tp3792
a(I2
I3
tp3793
aI00
(dp3794
(dp3795
(dp3796
tp3797
Rp3798
(dp3799
bag1
(I4
(lp3800
(I0
I2
tp3801
a(I0
I3
tp3802
a(I0
I3
tp3803
a(I0
I3
tp3804
a(I1
I1
tp3805
a(I1
I1
tp3806
a(I1
I1
tp3807
a(I2
I3
tp3808
a(I2
I3
tp3809
a(I2
I3
tp3810
aI00
(dp3811
(dp3812
(dp3813
tp3814
Rp3815
(dp3816
bag1
(I4
(lp3817
(I0
I2
tp3818
a(I0
I3
tp3819
a(I0
I3
tp3820
a(I0
I3
tp3821
a(I1
I1
tp3822
a(I1
I1
tp3823
a(I1
I1
tp3824
a(I2
I2
tp3825
a(I2
I3
tp3826
a(I3
I3
tp3827
aI00
(dp3828
(dp3829
(dp3830
tp3831
Rp3832
(dp3833
bag1
(I4
(lp3834
(I0
I2
tp3835
a(I0
I3
tp3836
a(I0
I3
tp3837
a(I0
I3
tp3838
a(I1
I1
tp3839
a(I1
I1
tp3840
a(I1
I1
tp3841
a(I2
I2
tp3842
a(I2
I2
tp3843
a(I2
I3
tp3844
aI00
(dp3845
(dp3846
(dp3847
tp3848
Rp3849
(dp3850
bag1
(I4
(lp3851
(I0
I2
tp3852
a(I0
I3
tp3853
a(I0
I3
tp3854
a(I0
I3
tp3855
a(I1
I1
tp3856
a(I1
I1
tp3857
a(I1
I1
tp3858
a(I1
I2
tp3859
a(I1
I2
tp3860
a(I2
I3
tp3861
aI00
(dp3862
(dp3863
(dp3864
tp3865
Rp3866
(dp3867
bag1
(I4
(lp3868
(I0
I2
tp3869
a(I0
I3
tp3870
a(I0
I3
tp3871
a(I0
I3
tp3872
a(I1
I1
tp3873
a(I1
I1
tp3874
a(I1
I1
tp3875
a(I1
I1
tp3876
a(I2
I2
tp3877
a(I2
I3
tp3878
aI00
(dp3879
(dp3880
(dp3881
tp3882
Rp3883
(dp3884
bag1
(I4
(lp3885
(I0
I2
tp3886
a(I0
I3
tp3887
a(I0
I3
tp3888
a(I0
I3
tp3889
a(I0
I3
tp3890
a(I0
I3
tp3891
a(I1
I1
tp3892
a(I2
I2
tp3893
a(I2
I3
tp3894
a(I3
I3
tp3895
aI00
(dp3896
(dp3897
(dp3898
tp3899
Rp3900
(dp3901
bag1
(I4
(lp3902
(I0
I2
tp3903
a(I0
I3
tp3904
a(I0
I3
tp3905
a(I0
I3
tp3906
a(I0
I3
tp3907
a(I0
I3
tp3908
a(I1
I1
tp3909
a(I2
I2
tp3910
a(I2
I2
tp3911
a(I2
I3
tp3912
aI00
(dp3913
(dp3914
(dp3915
tp3916
Rp3917
(dp3918
bag1
(I4
(lp3919
(I0
I2
tp3920
a(I0
I3
tp3921
a(I0
I3
tp3922
a(I0
I3
tp3923
a(I0
I3
tp3924
a(I0
I3
tp3925
a(I1
I1
tp3926
a(I1
I2
tp3927
a(I1
I3
tp3928
a(I2
I2
tp3929
aI00
(dp3930
(dp3931
(dp3932
tp3933
Rp3934
(dp3935
bag1
(I4
(lp3936
(I0
I2
tp3937
a(I0
I3
tp3938
a(I0
I3
tp3939
a(I0
I3
tp3940
a(I0
I3
tp3941
a(I0
I3
tp3942
a(I1
I1
tp3943
a(I1
I2
tp3944
a(I1
I2
tp3945
a(I2
I3
tp3946
aI00
(dp3947
(dp3948
(dp3949
tp3950
Rp3951
(dp3952
bag1
(I4
(lp3953
(I0
I2
tp3954
a(I0
I3
tp3955
a(I0
I3
tp3956
a(I0
I3
tp3957
a(I0
I3
tp3958
a(I0
I3
tp3959
a(I1
I1
tp3960
a(I1
I1
tp3961
a(I2
I2
tp3962
a(I2
I3
tp3963
aI00
(dp3964
(dp3965
(dp3966
tp3967
Rp3968
(dp3969
bag1
(I4
(lp3970
(I0
I2
tp3971
a(I0
I2
tp3972
a(I0
I3
tp3973
a(I0
I3
tp3974
a(I1
I2
tp3975
a(I1
I2
tp3976
a(I1
I3
tp3977
a(I1
I3
tp3978
a(I3
I3
tp3979
a(I3
I3
tp3980
aI00
(dp3981
(dp3982
(dp3983
tp3984
Rp3985
(dp3986
bag1
(I4
(lp3987
(I0
I2
tp3988
a(I0
I2
tp3989
a(I0
I3
tp3990
a(I0
I3
tp3991
a(I1
I2
tp3992
a(I1
I2
tp3993
a(I1
I3
tp3994
a(I1
I3
tp3995
a(I2
I3
tp3996
a(I2
I3
tp3997
aI00
(dp3998
(dp3999
(dp4000
tp4001
Rp4002
(dp4003
bag1
(I4
(lp4004
(I0
I2
tp4005
a(I0
I2
tp4006
a(I0
I3
tp4007
a(I0
I3
tp4008
a(I1
I2
tp4009
a(I1
I2
tp4010
a(I1
I3
tp4011
a(I1
I3
tp4012
a(I2
I2
tp4013
a(I3
I3
tp4014
aI00
(dp4015
(dp4016
(dp4017
tp4018
Rp4019
(dp4020
bag1
(I4
(lp4021
(I0
I2
tp4022
a(I0
I2
tp4023
a(I0
I3
tp4024
a(I0
I3
tp4025
a(I1
I2
tp4026
a(I1
I2
tp4027
a(I1
I3
tp4028
a(I1
I3
tp4029
a(I1
I3
tp4030
a(I1
I3
tp4031
aI00
(dp4032
(dp4033
(dp4034
tp4035
Rp4036
(dp4037
bag1
(I4
(lp4038
(I0
I2
tp4039
a(I0
I2
tp4040
a(I0
I3
tp4041
a(I0
I3
tp4042
a(I1
I1
tp4043
a(I2
I3
tp4044
a(I2
I3
tp4045
a(I3
I3
tp4046
a(I3
I3
tp4047
a(I3
I3
tp4048
aI00
(dp4049
(dp4050
(dp4051
tp4052
Rp4053
(dp4054
bag1
(I4
(lp4055
(I0
I2
tp4056
a(I0
I2
tp4057
a(I0
I3
tp4058
a(I0
I3
tp4059
a(I1
I1
tp4060
a(I2
I3
tp4061
a(I2
I3
tp4062
a(I2
I3
tp4063
a(I2
I3
tp4064
a(I3
I3
tp4065
aI00
(dp4066
(dp4067
(dp4068
tp4069
Rp4070
(dp4071
bag1
(I4
(lp4072
(I0
I2
tp4073
a(I0
I2
tp4074
a(I0
I3
tp4075
a(I0
I3
tp4076
a(I1
I1
tp4077
a(I2
I2
tp4078
a(I3
I3
tp4079
a(I3
I3
tp4080
a(I3
I3
tp4081
a(I3
I3
tp4082
aI00
(dp4083
(dp4084
(dp4085
tp4086
Rp4087
(dp4088
bag1
(I4
(lp4089
(I0
I2
tp4090
a(I0
I2
tp4091
a(I0
I3
tp4092
a(I0
I3
tp4093
a(I1
I1
tp4094
a(I2
I2
tp4095
a(I2
I3
tp4096
a(I2
I3
tp4097
a(I3
I3
tp4098
a(I3
I3
tp4099
aI00
(dp4100
(dp4101
(dp4102
tp4103
Rp4104
(dp4105
bag1
(I4
(lp4106
(I0
I2
tp4107
a(I0
I2
tp4108
a(I0
I3
tp4109
a(I0
I3
tp4110
a(I1
I1
tp4111
a(I2
I2
tp4112
a(I2
I2
tp4113
a(I3
I3
tp4114
a(I3
I3
tp4115
a(I3
I3
tp4116
aI00
(dp4117
(dp4118
(dp4119
tp4120
Rp4121
(dp4122
bag1
(I4
(lp4123
(I0
I2
tp4124
a(I0
I2
tp4125
a(I0
I3
tp4126
a(I0
I3
tp4127
a(I1
I1
tp4128
a(I1
I3
tp4129
a(I1
I3
tp4130
a(I2
I3
tp4131
a(I2
I3
tp4132
a(I3
I3
tp4133
aI00
(dp4134
(dp4135
(dp4136
tp4137
Rp4138
(dp4139
bag1
(I4
(lp4140
(I0
I2
tp4141
a(I0
I2
tp4142
a(I0
I3
tp4143
a(I0
I3
tp4144
a(I1
I1
tp4145
a(I1
I3
tp4146
a(I1
I3
tp4147
a(I2
I2
tp4148
a(I3
I3
tp4149
a(I3
I3
tp4150
aI00
(dp4151
(dp4152
(dp4153
tp4154
Rp4155
(dp4156
bag1
(I4
(lp4157
(I0
I2
tp4158
a(I0
I2
tp4159
a(I0
I3
tp4160
a(I0
I3
tp4161
a(I1
I1
tp4162
a(I1
I3
tp4163
a(I1
I3
tp4164
a(I2
I2
tp4165
a(I2
I3
tp4166
a(I2
I3
tp4167
aI00
(dp4168
(dp4169
(dp4170
tp4171
Rp4172
(dp4173
bag1
(I4
(lp4174
(I0
I2
tp4175
a(I0
I2
tp4176
a(I0
I3
tp4177
a(I0
I3
tp4178
a(I1
I1
tp4179
a(I1
I3
tp4180
a(I1
I3
tp4181
a(I2
I2
tp4182
a(I2
I2
tp4183
a(I3
I3
tp4184
aI00
(dp4185
(dp4186
(dp4187
tp4188
Rp4189
(dp4190
bag1
(I4
(lp4191
(I0
I2
tp4192
a(I0
I2
tp4193
a(I0
I3
tp4194
a(I0
I3
tp4195
a(I1
I1
tp4196
a(I1
I3
tp4197
a(I1
I3
tp4198
a(I2
I2
tp4199
a(I2
I2
tp4200
a(I2
I2
tp4201
aI00
(dp4202
(dp4203
(dp4204
tp4205
Rp4206
(dp4207
bag1
(I4
(lp4208
(I0
I2
tp4209
a(I0
I2
tp4210
a(I0
I3
tp4211
a(I0
I3
tp4212
a(I1
I1
tp4213
a(I1
I3
tp4214
a(I1
I3
tp4215
a(I1
I3
tp4216
a(I1
I3
tp4217
a(I2
I2
tp4218
aI00
(dp4219
(dp4220
(dp4221
tp4222
Rp4223
(dp4224
bag1
(I4
(lp4225
(I0
I2
tp4226
a(I0
I2
tp4227
a(I0
I3
tp4228
a(I0
I3
tp4229
a(I1
I1
tp4230
a(I1
I2
tp4231
a(I1
I3
tp4232
a(I2
I3
tp4233
a(I3
I3
tp4234
a(I3
I3
tp4235
aI00
(dp4236
(dp4237
(dp4238
tp4239
Rp4240
(dp4241
bag1
(I4
(lp4242
(I0
I2
tp4243
a(I0
I2
tp4244
a(I0
I3
tp4245
a(I0
I3
tp4246
a(I1
I1
tp4247
a(I1
I2
tp4248
a(I1
I3
tp4249
a(I2
I3
tp4250
a(I2
I3
tp4251
a(I2
I3
tp4252
aI00
(dp4253
(dp4254
(dp4255
tp4256
Rp4257
(dp4258
bag1
(I4
(lp4259
(I0
I2
tp4260
a(I0
I2
tp4261
a(I0
I3
tp4262
a(I0
I3
tp4263
a(I1
I1
tp4264
a(I1
I2
tp4265
a(I1
I3
tp4266
a(I2
I2
tp4267
a(I2
I3
tp4268
a(I3
I3
tp4269
aI00
(dp4270
(dp4271
(dp4272
tp4273
Rp4274
(dp4275
bag1
(I4
(lp4276
(I0
I2
tp4277
a(I0
I2
tp4278
a(I0
I3
tp4279
a(I0
I3
tp4280
a(I1
I1
tp4281
a(I1
I2
tp4282
a(I1
I3
tp4283
a(I1
I3
tp4284
a(I1
I3
tp4285
a(I2
I3
tp4286
aI00
(dp4287
(dp4288
(dp4289
tp4290
Rp4291
(dp4292
bag1
(I4
(lp4293
(I0
I2
tp4294
a(I0
I2
tp4295
a(I0
I3
tp4296
a(I0
I3
tp4297
a(I1
I1
tp4298
a(I1
I2
tp4299
a(I1
I2
tp4300
a(I1
I3
tp4301
a(I1
I3
tp4302
a(I3
I3
tp4303
aI00
(dp4304
(dp4305
(dp4306
tp4307
Rp4308
(dp4309
bag1
(I4
(lp4310
(I0
I2
tp4311
a(I0
I2
tp4312
a(I0
I3
tp4313
a(I0
I3
tp4314
a(I1
I1
tp4315
a(I1
I1
tp4316
a(I2
I3
tp4317
a(I2
I3
tp4318
a(I3
I3
tp4319
a(I3
I3
tp4320
aI00
(dp4321
(dp4322
(dp4323
tp4324
Rp4325
(dp4326
bag1
(I4
(lp4327
(I0
I2
tp4328
a(I0
I2
tp4329
a(I0
I3
tp4330
a(I0
I3
tp4331
a(I1
I1
tp4332
a(I1
I1
tp4333
a(I2
I3
tp4334
a(I2
I3
tp4335
a(I2
I3
tp4336
a(I2
I3
tp4337
aI00
(dp4338
(dp4339
(dp4340
tp4341
Rp4342
(dp4343
bag1
(I4
(lp4344
(I0
I2
tp4345
a(I0
I2
tp4346
a(I0
I3
tp4347
a(I0
I3
tp4348
a(I1
I1
tp4349
a(I1
I1
tp4350
a(I2
I2
tp4351
a(I3
I3
tp4352
a(I3
I3
tp4353
a(I3
I3
tp4354
aI00
(dp4355
(dp4356
(dp4357
tp4358
Rp4359
(dp4360
bag1
(I4
(lp4361
(I0
I2
tp4362
a(I0
I2
tp4363
a(I0
I3
tp4364
a(I0
I3
tp4365
a(I1
I1
tp4366
a(I1
I1
tp4367
a(I2
I2
tp4368
a(I2
I3
tp4369
a(I2
I3
tp4370
a(I3
I3
tp4371
aI00
(dp4372
(dp4373
(dp4374
tp4375
Rp4376
(dp4377
bag1
(I4
(lp4378
(I0
I2
tp4379
a(I0
I2
tp4380
a(I0
I3
tp4381
a(I0
I3
tp4382
a(I1
I1
tp4383
a(I1
I1
tp4384
a(I2
I2
tp4385
a(I2
I2
tp4386
a(I3
I3
tp4387
a(I3
I3
tp4388
aI00
(dp4389
(dp4390
(dp4391
tp4392
Rp4393
(dp4394
bag1
(I4
(lp4395
(I0
I2
tp4396
a(I0
I2
tp4397
a(I0
I3
tp4398
a(I0
I3
tp4399
a(I1
I1
tp4400
a(I1
I1
tp4401
a(I1
I3
tp4402
a(I1
I3
tp4403
a(I2
I3
tp4404
a(I2
I3
tp4405
aI00
(dp4406
(dp4407
(dp4408
tp4409
Rp4410
(dp4411
bag1
(I4
(lp4412
(I0
I2
tp4413
a(I0
I2
tp4414
a(I0
I3
tp4415
a(I0
I3
tp4416
a(I1
I1
tp4417
a(I1
I1
tp4418
a(I1
I3
tp4419
a(I1
I3
tp4420
a(I2
I2
tp4421
a(I3
I3
tp4422
aI00
(dp4423
(dp4424
(dp4425
tp4426
Rp4427
(dp4428
bag1
(I4
(lp4429
(I0
I2
tp4430
a(I0
I2
tp4431
a(I0
I3
tp4432
a(I0
I3
tp4433
a(I1
I1
tp4434
a(I1
I1
tp4435
a(I1
I3
tp4436
a(I1
I3
tp4437
a(I2
I2
tp4438
a(I2
I2
tp4439
aI00
(dp4440
(dp4441
(dp4442
tp4443
Rp4444
(dp4445
bag1
(I4
(lp4446
(I0
I2
tp4447
a(I0
I2
tp4448
a(I0
I3
tp4449
a(I0
I3
tp4450
a(I1
I1
tp4451
a(I1
I1
tp4452
a(I1
I2
tp4453
a(I1
I3
tp4454
a(I2
I3
tp4455
a(I3
I3
tp4456
aI00
(dp4457
(dp4458
(dp4459
tp4460
Rp4461
(dp4462
bag1
(I4
(lp4463
(I0
I2
tp4464
a(I0
I2
tp4465
a(I0
I3
tp4466
a(I0
I3
tp4467
a(I1
I1
tp4468
a(I1
I1
tp4469
a(I1
I1
tp4470
a(I2
I3
tp4471
a(I2
I3
tp4472
a(I3
I3
tp4473
aI00
(dp4474
(dp4475
(dp4476
tp4477
Rp4478
(dp4479
bag1
(I4
(lp4480
(I0
I2
tp4481
a(I0
I2
tp4482
a(I0
I3
tp4483
a(I0
I3
tp4484
a(I1
I1
tp4485
a(I1
I1
tp4486
a(I1
I1
tp4487
a(I2
I2
tp4488
a(I3
I3
tp4489
a(I3
I3
tp4490
aI00
(dp4491
(dp4492
(dp4493
tp4494
Rp4495
(dp4496
bag1
(I4
(lp4497
(I0
I2
tp4498
a(I0
I2
tp4499
a(I0
I3
tp4500
a(I0
I3
tp4501
a(I1
I1
tp4502
a(I1
I1
tp4503
a(I1
I1
tp4504
a(I1
I2
tp4505
a(I1
I3
tp4506
a(I2
I3
tp4507
aI00
(dp4508
(dp4509
(dp4510
tp4511
Rp4512
(dp4513
bag1
(I4
(lp4514
(I0
I2
tp4515
a(I0
I2
tp4516
a(I0
I3
tp4517
a(I0
I3
tp4518
a(I1
I1
tp4519
a(I1
I1
tp4520
a(I1
I1
tp4521
a(I1
I1
tp4522
a(I2
I3
tp4523
a(I2
I3
tp4524
aI00
(dp4525
(dp4526
(dp4527
tp4528
Rp4529
(dp4530
bag1
(I4
(lp4531
(I0
I2
tp4532
a(I0
I2
tp4533
a(I0
I3
tp4534
a(I0
I3
tp4535
a(I1
I1
tp4536
a(I1
I1
tp4537
a(I1
I1
tp4538
a(I1
I1
tp4539
a(I2
I2
tp4540
a(I3
I3
tp4541
aI00
(dp4542
(dp4543
(dp4544
tp4545
Rp4546
(dp4547
bag1
(I4
(lp4548
(I0
I2
tp4549
a(I0
I2
tp4550
a(I0
I3
tp4551
a(I0
I3
tp4552
a(I0
I3
tp4553
a(I0
I3
tp4554
a(I1
I1
tp4555
a(I2
I2
tp4556
a(I3
I3
tp4557
a(I3
I3
tp4558
aI00
(dp4559
(dp4560
(dp4561
tp4562
Rp4563
(dp4564
bag1
(I4
(lp4565
(I0
I2
tp4566
a(I0
I2
tp4567
a(I0
I3
tp4568
a(I0
I3
tp4569
a(I0
I3
tp4570
a(I0
I3
tp4571
a(I1
I1
tp4572
a(I2
I2
tp4573
a(I2
I3
tp4574
a(I2
I3
tp4575
aI00
(dp4576
(dp4577
(dp4578
tp4579
Rp4580
(dp4581
bag1
(I4
(lp4582
(I0
I2
tp4583
a(I0
I2
tp4584
a(I0
I3
tp4585
a(I0
I3
tp4586
a(I0
I3
tp4587
a(I0
I3
tp4588
a(I1
I1
tp4589
a(I2
I2
tp4590
a(I2
I2
tp4591
a(I3
I3
tp4592
aI00
(dp4593
(dp4594
(dp4595
tp4596
Rp4597
(dp4598
bag1
(I4
(lp4599
(I0
I2
tp4600
a(I0
I2
tp4601
a(I0
I3
tp4602
a(I0
I3
tp4603
a(I0
I3
tp4604
a(I0
I3
tp4605
a(I1
I1
tp4606
a(I1
I3
tp4607
a(I1
I3
tp4608
a(I2
I2
tp4609
aI00
(dp4610
(dp4611
(dp4612
tp4613
Rp4614
(dp4615
bag1
(I4
(lp4616
(I0
I2
tp4617
a(I0
I2
tp4618
a(I0
I3
tp4619
a(I0
I3
tp4620
a(I0
I3
tp4621
a(I0
I3
tp4622
a(I1
I1
tp4623
a(I1
I2
tp4624
a(I1
I3
tp4625
a(I2
I3
tp4626
aI00
(dp4627
(dp4628
(dp4629
tp4630
Rp4631
(dp4632
bag1
(I4
(lp4633
(I0
I2
tp4634
a(I0
I2
tp4635
a(I0
I3
tp4636
a(I0
I3
tp4637
a(I0
I3
tp4638
a(I0
I3
tp4639
a(I1
I1
tp4640
a(I1
I1
tp4641
a(I2
I2
tp4642
a(I3
I3
tp4643
aI00
(dp4644
(dp4645
(dp4646
tp4647
Rp4648
(dp4649
bag1
(I4
(lp4650
(I0
I2
tp4651
a(I0
I2
tp4652
a(I0
I2
tp4653
a(I0
I3
tp4654
a(I0
I3
tp4655
a(I0
I3
tp4656
a(I1
I1
tp4657
a(I2
I3
tp4658
a(I2
I3
tp4659
a(I2
I3
tp4660
aI00
(dp4661
(dp4662
(dp4663
tp4664
Rp4665
(dp4666
bag1
(I4
(lp4667
(I0
I2
tp4668
a(I0
I2
tp4669
a(I0
I2
tp4670
a(I0
I3
tp4671
a(I0
I3
tp4672
a(I0
I3
tp4673
a(I1
I1
tp4674
a(I2
I2
tp4675
a(I2
I3
tp4676
a(I3
I3
tp4677
aI00
(dp4678
(dp4679
(dp4680
tp4681
Rp4682
(dp4683
bag1
(I4
(lp4684
(I0
I1
tp4685
a(I0
I2
tp4686
a(I0
I3
tp4687
a(I0
I3
tp4688
a(I1
I2
tp4689
a(I1
I3
tp4690
a(I1
I3
tp4691
a(I2
I3
tp4692
a(I2
I3
tp4693
a(I3
I3
tp4694
aI00
(dp4695
(dp4696
(dp4697
tp4698
Rp4699
(dp4700
bag1
(I4
(lp4701
(I0
I1
tp4702
a(I0
I2
tp4703
a(I0
I3
tp4704
a(I0
I3
tp4705
a(I1
I2
tp4706
a(I1
I3
tp4707
a(I1
I3
tp4708
a(I2
I2
tp4709
a(I3
I3
tp4710
a(I3
I3
tp4711
aI00
(dp4712
(dp4713
(dp4714
tp4715
Rp4716
(dp4717
bag1
(I4
(lp4718
(I0
I1
tp4719
a(I0
I2
tp4720
a(I0
I3
tp4721
a(I0
I3
tp4722
a(I1
I2
tp4723
a(I1
I3
tp4724
a(I1
I3
tp4725
a(I2
I2
tp4726
a(I2
I3
tp4727
a(I2
I3
tp4728
aI00
(dp4729
(dp4730
(dp4731
tp4732
Rp4733
(dp4734
bag1
(I4
(lp4735
(I0
I1
tp4736
a(I0
I2
tp4737
a(I0
I3
tp4738
a(I0
I3
tp4739
a(I1
I2
tp4740
a(I1
I3
tp4741
a(I1
I3
tp4742
a(I2
I2
tp4743
a(I2
I2
tp4744
a(I3
I3
tp4745
aI00
(dp4746
(dp4747
(dp4748
tp4749
Rp4750
(dp4751
bag1
(I4
(lp4752
(I0
I1
tp4753
a(I0
I2
tp4754
a(I0
I3
tp4755
a(I0
I3
tp4756
a(I1
I2
tp4757
a(I1
I2
tp4758
a(I1
I3
tp4759
a(I2
I3
tp4760
a(I3
I3
tp4761
a(I3
I3
tp4762
aI00
(dp4763
(dp4764
(dp4765
tp4766
Rp4767
(dp4768
bag1
(I4
(lp4769
(I0
I1
tp4770
a(I0
I2
tp4771
a(I0
I3
tp4772
a(I0
I3
tp4773
a(I1
I2
tp4774
a(I1
I2
tp4775
a(I1
I3
tp4776
a(I2
I3
tp4777
a(I2
I3
tp4778
a(I2
I3
tp4779
aI00
(dp4780
(dp4781
(dp4782
tp4783
Rp4784
(dp4785
bag1
(I4
(lp4786
(I0
I1
tp4787
a(I0
I2
tp4788
a(I0
I3
tp4789
a(I0
I3
tp4790
a(I1
I2
tp4791
a(I1
I2
tp4792
a(I1
I3
tp4793
a(I2
I2
tp4794
a(I2
I3
tp4795
a(I3
I3
tp4796
aI00
(dp4797
(dp4798
(dp4799
tp4800
Rp4801
(dp4802
bag1
(I4
(lp4803
(I0
I1
tp4804
a(I0
I2
tp4805
a(I0
I3
tp4806
a(I0
I3
tp4807
a(I1
I2
tp4808
a(I1
I2
tp4809
a(I1
I2
tp4810
a(I1
I2
tp4811
a(I1
I3
tp4812
a(I2
I3
tp4813
aI00
(dp4814
(dp4815
(dp4816
tp4817
Rp4818
(dp4819
bag1
(I4
(lp4820
(I0
I1
tp4821
a(I0
I2
tp4822
a(I0
I3
tp4823
a(I0
I3
tp4824
a(I1
I1
tp4825
a(I1
I3
tp4826
a(I2
I2
tp4827
a(I2
I3
tp4828
a(I3
I3
tp4829
a(I3
I3
tp4830
aI00
(dp4831
(dp4832
(dp4833
tp4834
Rp4835
(dp4836
bag1
(I4
(lp4837
(I0
I1
tp4838
a(I0
I2
tp4839
a(I0
I3
tp4840
a(I0
I3
tp4841
a(I1
I1
tp4842
a(I1
I3
tp4843
a(I2
I2
tp4844
a(I2
I3
tp4845
a(I2
I3
tp4846
a(I2
I3
tp4847
aI00
(dp4848
(dp4849
(dp4850
tp4851
Rp4852
(dp4853
bag1
(I4
(lp4854
(I0
I1
tp4855
a(I0
I2
tp4856
a(I0
I3
tp4857
a(I0
I3
tp4858
a(I1
I1
tp4859
a(I1
I3
tp4860
a(I2
I2
tp4861
a(I2
I2
tp4862
a(I2
I3
tp4863
a(I3
I3
tp4864
aI00
(dp4865
(dp4866
(dp4867
tp4868
Rp4869
(dp4870
bag1
(I4
(lp4871
(I0
I1
tp4872
a(I0
I2
tp4873
a(I0
I3
tp4874
a(I0
I3
tp4875
a(I1
I1
tp4876
a(I1
I3
tp4877
a(I2
I2
tp4878
a(I2
I2
tp4879
a(I2
I2
tp4880
a(I2
I3
tp4881
aI00
(dp4882
(dp4883
(dp4884
tp4885
Rp4886
(dp4887
bag1
(I4
(lp4888
(I0
I1
tp4889
a(I0
I2
tp4890
a(I0
I3
tp4891
a(I0
I3
tp4892
a(I1
I1
tp4893
a(I1
I2
tp4894
a(I2
I2
tp4895
a(I3
I3
tp4896
a(I3
I3
tp4897
a(I3
I3
tp4898
aI00
(dp4899
(dp4900
(dp4901
tp4902
Rp4903
(dp4904
bag1
(I4
(lp4905
(I0
I1
tp4906
a(I0
I2
tp4907
a(I0
I3
tp4908
a(I0
I3
tp4909
a(I1
I1
tp4910
a(I1
I2
tp4911
a(I2
I2
tp4912
a(I2
I3
tp4913
a(I2
I3
tp4914
a(I3
I3
tp4915
aI00
(dp4916
(dp4917
(dp4918
tp4919
Rp4920
(dp4921
bag1
(I4
(lp4922
(I0
I1
tp4923
a(I0
I2
tp4924
a(I0
I3
tp4925
a(I0
I3
tp4926
a(I1
I1
tp4927
a(I1
I2
tp4928
a(I2
I2
tp4929
a(I2
I2
tp4930
a(I3
I3
tp4931
a(I3
I3
tp4932
aI00
(dp4933
(dp4934
(dp4935
tp4936
Rp4937
(dp4938
bag1
(I4
(lp4939
(I0
I1
tp4940
a(I0
I2
tp4941
a(I0
I3
tp4942
a(I0
I3
tp4943
a(I1
I1
tp4944
a(I1
I2
tp4945
a(I2
I2
tp4946
a(I2
I2
tp4947
a(I2
I2
tp4948
a(I3
I3
tp4949
aI00
(dp4950
(dp4951
(dp4952
tp4953
Rp4954
(dp4955
bag1
(I4
(lp4956
(I0
I1
tp4957
a(I0
I2
tp4958
a(I0
I3
tp4959
a(I0
I3
tp4960
a(I1
I1
tp4961
a(I1
I2
tp4962
a(I1
I2
tp4963
a(I1
I3
tp4964
a(I2
I2
tp4965
a(I2
I3
tp4966
aI00
(dp4967
(dp4968
(dp4969
tp4970
Rp4971
(dp4972
bag1
(I4
(lp4973
(I0
I1
tp4974
a(I0
I2
tp4975
a(I0
I3
tp4976
a(I0
I3
tp4977
a(I1
I1
tp4978
a(I1
I2
tp4979
a(I1
I2
tp4980
a(I1
I2
tp4981
a(I2
I2
tp4982
a(I3
I3
tp4983
aI00
(dp4984
(dp4985
(dp4986
tp4987
Rp4988
(dp4989
bag1
(I4
(lp4990
(I0
I1
tp4991
a(I0
I2
tp4992
a(I0
I3
tp4993
a(I0
I3
tp4994
a(I1
I1
tp4995
a(I1
I1
tp4996
a(I1
I3
tp4997
a(I2
I2
tp4998
a(I2
I2
tp4999
a(I2
I3
tp5000
aI00
(dp5001
(dp5002
(dp5003
tp5004
Rp5005
(dp5006
bag1
(I4
(lp5007
(I0
I1
tp5008
a(I0
I2
tp5009
a(I0
I3
tp5010
a(I0
I3
tp5011
a(I1
I1
tp5012
a(I1
I1
tp5013
a(I1
I2
tp5014
a(I2
I2
tp5015
a(I2
I2
tp5016
a(I3
I3
tp5017
aI00
(dp5018
(dp5019
(dp5020
tp5021
Rp5022
(dp5023
bag1
(I4
(lp5024
(I0
I1
tp5025
a(I0
I2
tp5026
a(I0
I3
tp5027
a(I0
I3
tp5028
a(I0
I3
tp5029
a(I0
I3
tp5030
a(I1
I1
tp5031
a(I1
I3
tp5032
a(I2
I2
tp5033
a(I2
I3
tp5034
aI00
(dp5035
(dp5036
(dp5037
tp5038
Rp5039
(dp5040
bag1
(I4
(lp5041
(I0
I1
tp5042
a(I0
I2
tp5043
a(I0
I3
tp5044
a(I0
I3
tp5045
a(I0
I3
tp5046
a(I0
I3
tp5047
a(I1
I1
tp5048
a(I1
I2
tp5049
a(I2
I2
tp5050
a(I3
I3
tp5051
aI00
(dp5052
(dp5053
(dp5054
tp5055
Rp5056
(dp5057
bag1
(I4
(lp5058
(I0
I1
tp5059
a(I0
I2
tp5060
a(I0
I2
tp5061
a(I0
I3
tp5062
a(I0
I3
tp5063
a(I0
I3
tp5064
a(I1
I1
tp5065
a(I1
I3
tp5066
a(I2
I2
tp5067
a(I3
I3
tp5068
aI00
(dp5069
(dp5070
(dp5071
tp5072
Rp5073
(dp5074
bag1
(I4
(lp5075
(I0
I1
tp5076
a(I0
I1
tp5077
a(I0
I2
tp5078
a(I0
I2
tp5079
a(I0
I3
tp5080
a(I0
I3
tp5081
a(I1
I1
tp5082
a(I2
I2
tp5083
a(I3
I3
tp5084
a(I3
I3
tp5085
aI00
(dp5086
(dp5087
(dp5088
tp5089
Rp5090
(dp5091
bag1
(I4
(lp5092
(I0
I0
tp5093
a(I1
I1
tp5094
a(I2
I2
tp5095
a(I3
I3
tp5096
a(I3
I3
tp5097
a(I3
I3
tp5098
a(I3
I3
tp5099
a(I3
I3
tp5100
a(I3
I3
tp5101
a(I3
I3
tp5102
aI00
(dp5103
(dp5104
(dp5105
tp5106
Rp5107
(dp5108
bag1
(I4
(lp5109
(I0
I0
tp5110
a(I1
I1
tp5111
a(I2
I2
tp5112
a(I2
I3
tp5113
a(I2
I3
tp5114
a(I3
I3
tp5115
a(I3
I3
tp5116
a(I3
I3
tp5117
a(I3
I3
tp5118
a(I3
I3
tp5119
aI00
(dp5120
(dp5121
(dp5122
tp5123
Rp5124
(dp5125
bag1
(I4
(lp5126
(I0
I0
tp5127
a(I1
I1
tp5128
a(I2
I2
tp5129
a(I2
I3
tp5130
a(I2
I3
tp5131
a(I2
I3
tp5132
a(I2
I3
tp5133
a(I3
I3
tp5134
a(I3
I3
tp5135
a(I3
I3
tp5136
aI00
(dp5137
(dp5138
(dp5139
tp5140
Rp5141
(dp5142
bag1
(I4
(lp5143
(I0
I0
tp5144
a(I1
I1
tp5145
a(I2
I2
tp5146
a(I2
I3
tp5147
a(I2
I3
tp5148
a(I2
I3
tp5149
a(I2
I3
tp5150
a(I2
I3
tp5151
a(I2
I3
tp5152
a(I3
I3
tp5153
aI00
(dp5154
(dp5155
(dp5156
tp5157
Rp5158
(dp5159
bag1
(I4
(lp5160
(I0
I0
tp5161
a(I1
I1
tp5162
a(I2
I2
tp5163
a(I2
I2
tp5164
a(I3
I3
tp5165
a(I3
I3
tp5166
a(I3
I3
tp5167
a(I3
I3
tp5168
a(I3
I3
tp5169
a(I3
I3
tp5170
aI00
(dp5171
(dp5172
(dp5173
tp5174
Rp5175
(dp5176
bag1
(I4
(lp5177
(I0
I0
tp5178
a(I1
I1
tp5179
a(I2
I2
tp5180
a(I2
I2
tp5181
a(I2
I3
tp5182
a(I2
I3
tp5183
a(I3
I3
tp5184
a(I3
I3
tp5185
a(I3
I3
tp5186
a(I3
I3
tp5187
aI00
(dp5188
(dp5189
(dp5190
tp5191
Rp5192
(dp5193
bag1
(I4
(lp5194
(I0
I0
tp5195
a(I1
I1
tp5196
a(I2
I2
tp5197
a(I2
I2
tp5198
a(I2
I3
tp5199
a(I2
I3
tp5200
a(I2
I3
tp5201
a(I2
I3
tp5202
a(I3
I3
tp5203
a(I3
I3
tp5204
aI00
(dp5205
(dp5206
(dp5207
tp5208
Rp5209
(dp5210
bag1
(I4
(lp5211
(I0
I0
tp5212
a(I1
I1
tp5213
a(I2
I2
tp5214
a(I2
I2
tp5215
a(I2
I2
tp5216
a(I3
I3
tp5217
a(I3
I3
tp5218
a(I3
I3
tp5219
a(I3
I3
tp5220
a(I3
I3
tp5221
aI00
(dp5222
(dp5223
(dp5224
tp5225
Rp5226
(dp5227
bag1
(I4
(lp5228
(I0
I0
tp5229
a(I1
I1
tp5230
a(I2
I2
tp5231
a(I2
I2
tp5232
a(I2
I2
tp5233
a(I2
I3
tp5234
a(I2
I3
tp5235
a(I3
I3
tp5236
a(I3
I3
tp5237
a(I3
I3
tp5238
aI00
(dp5239
(dp5240
(dp5241
tp5242
Rp5243
(dp5244
bag1
(I4
(lp5245
(I0
I0
tp5246
a(I1
I1
tp5247
a(I2
I2
tp5248
a(I2
I2
tp5249
a(I2
I2
tp5250
a(I2
I2
tp5251
a(I3
I3
tp5252
a(I3
I3
tp5253
a(I3
I3
tp5254
a(I3
I3
tp5255
aI00
(dp5256
(dp5257
(dp5258
tp5259
Rp5260
(dp5261
bag1
(I4
(lp5262
(I0
I0
tp5263
a(I1
I1
tp5264
a(I1
I3
tp5265
a(I1
I3
tp5266
a(I2
I2
tp5267
a(I2
I3
tp5268
a(I2
I3
tp5269
a(I3
I3
tp5270
a(I3
I3
tp5271
a(I3
I3
tp5272
aI00
(dp5273
(dp5274
(dp5275
tp5276
Rp5277
(dp5278
bag1
(I4
(lp5279
(I0
I0
tp5280
a(I1
I1
tp5281
a(I1
I3
tp5282
a(I1
I3
tp5283
a(I2
I2
tp5284
a(I2
I3
tp5285
a(I2
I3
tp5286
a(I2
I3
tp5287
a(I2
I3
tp5288
a(I3
I3
tp5289
aI00
(dp5290
(dp5291
(dp5292
tp5293
Rp5294
(dp5295
bag1
(I4
(lp5296
(I0
I0
tp5297
a(I1
I1
tp5298
a(I1
I3
tp5299
a(I1
I3
tp5300
a(I2
I2
tp5301
a(I2
I2
tp5302
a(I3
I3
tp5303
a(I3
I3
tp5304
a(I3
I3
tp5305
a(I3
I3
tp5306
aI00
(dp5307
(dp5308
(dp5309
tp5310
Rp5311
(dp5312
bag1
(I4
(lp5313
(I0
I0
tp5314
a(I1
I1
tp5315
a(I1
I3
tp5316
a(I1
I3
tp5317
a(I2
I2
tp5318
a(I2
I2
tp5319
a(I2
I3
tp5320
a(I2
I3
tp5321
a(I3
I3
tp5322
a(I3
I3
tp5323
aI00
(dp5324
(dp5325
(dp5326
tp5327
Rp5328
(dp5329
bag1
(I4
(lp5330
(I0
I0
tp5331
a(I1
I1
tp5332
a(I1
I3
tp5333
a(I1
I3
tp5334
a(I2
I2
tp5335
a(I2
I2
tp5336
a(I2
I2
tp5337
a(I3
I3
tp5338
a(I3
I3
tp5339
a(I3
I3
tp5340
aI00
(dp5341
(dp5342
(dp5343
tp5344
Rp5345
(dp5346
bag1
(I4
(lp5347
(I0
I0
tp5348
a(I1
I1
tp5349
a(I1
I3
tp5350
a(I1
I3
tp5351
a(I2
I2
tp5352
a(I2
I2
tp5353
a(I2
I2
tp5354
a(I2
I3
tp5355
a(I2
I3
tp5356
a(I3
I3
tp5357
aI00
(dp5358
(dp5359
(dp5360
tp5361
Rp5362
(dp5363
bag1
(I4
(lp5364
(I0
I0
tp5365
a(I1
I1
tp5366
a(I1
I3
tp5367
a(I1
I3
tp5368
a(I2
I2
tp5369
a(I2
I2
tp5370
a(I2
I2
tp5371
a(I2
I2
tp5372
a(I3
I3
tp5373
a(I3
I3
tp5374
aI00
(dp5375
(dp5376
(dp5377
tp5378
Rp5379
(dp5380
bag1
(I4
(lp5381
(I0
I0
tp5382
a(I1
I1
tp5383
a(I1
I3
tp5384
a(I1
I3
tp5385
a(I2
I2
tp5386
a(I2
I2
tp5387
a(I2
I2
tp5388
a(I2
I2
tp5389
a(I2
I2
tp5390
a(I3
I3
tp5391
aI00
(dp5392
(dp5393
(dp5394
tp5395
Rp5396
(dp5397
bag1
(I4
(lp5398
(I0
I0
tp5399
a(I1
I1
tp5400
a(I1
I3
tp5401
a(I1
I3
tp5402
a(I1
I3
tp5403
a(I1
I3
tp5404
a(I2
I2
tp5405
a(I2
I2
tp5406
a(I3
I3
tp5407
a(I3
I3
tp5408
aI00
(dp5409
(dp5410
(dp5411
tp5412
Rp5413
(dp5414
bag1
(I4
(lp5415
(I0
I0
tp5416
a(I1
I1
tp5417
a(I1
I3
tp5418
a(I1
I3
tp5419
a(I1
I3
tp5420
a(I1
I3
tp5421
a(I2
I2
tp5422
a(I2
I2
tp5423
a(I2
I2
tp5424
a(I3
I3
tp5425
aI00
(dp5426
(dp5427
(dp5428
tp5429
Rp5430
(dp5431
bag1
(I4
(lp5432
(I0
I0
tp5433
a(I1
I1
tp5434
a(I1
I2
tp5435
a(I1
I3
tp5436
a(I2
I2
tp5437
a(I2
I3
tp5438
a(I3
I3
tp5439
a(I3
I3
tp5440
a(I3
I3
tp5441
a(I3
I3
tp5442
aI00
(dp5443
(dp5444
(dp5445
tp5446
Rp5447
(dp5448
bag1
(I4
(lp5449
(I0
I0
tp5450
a(I1
I1
tp5451
a(I1
I2
tp5452
a(I1
I3
tp5453
a(I2
I2
tp5454
a(I2
I3
tp5455
a(I2
I3
tp5456
a(I2
I3
tp5457
a(I3
I3
tp5458
a(I3
I3
tp5459
aI00
(dp5460
(dp5461
(dp5462
tp5463
Rp5464
(dp5465
bag1
(I4
(lp5466
(I0
I0
tp5467
a(I1
I1
tp5468
a(I1
I2
tp5469
a(I1
I3
tp5470
a(I2
I2
tp5471
a(I2
I2
tp5472
a(I2
I3
tp5473
a(I3
I3
tp5474
a(I3
I3
tp5475
a(I3
I3
tp5476
aI00
(dp5477
(dp5478
(dp5479
tp5480
Rp5481
(dp5482
bag1
(I4
(lp5483
(I0
I0
tp5484
a(I1
I1
tp5485
a(I1
I2
tp5486
a(I1
I3
tp5487
a(I1
I3
tp5488
a(I1
I3
tp5489
a(I2
I2
tp5490
a(I2
I2
tp5491
a(I2
I3
tp5492
a(I3
I3
tp5493
aI00
(dp5494
(dp5495
(dp5496
tp5497
Rp5498
(dp5499
bag1
(I4
(lp5500
(I0
I0
tp5501
a(I1
I1
tp5502
a(I1
I2
tp5503
a(I1
I2
tp5504
a(I1
I3
tp5505
a(I1
I3
tp5506
a(I2
I2
tp5507
a(I2
I3
tp5508
a(I2
I3
tp5509
a(I3
I3
tp5510
aI00
(dp5511
(dp5512
(dp5513
tp5514
Rp5515
(dp5516
bag1
(I4
(lp5517
(I0
I0
tp5518
a(I1
I1
tp5519
a(I1
I2
tp5520
a(I1
I2
tp5521
a(I1
I3
tp5522
a(I1
I3
tp5523
a(I2
I2
tp5524
a(I2
I2
tp5525
a(I3
I3
tp5526
a(I3
I3
tp5527
aI00
(dp5528
(dp5529
(dp5530
tp5531
Rp5532
(dp5533
bag1
(I4
(lp5534
(I0
I0
tp5535
a(I1
I1
tp5536
a(I1
I1
tp5537
a(I2
I2
tp5538
a(I2
I2
tp5539
a(I3
I3
tp5540
a(I3
I3
tp5541
a(I3
I3
tp5542
a(I3
I3
tp5543
a(I3
I3
tp5544
aI00
(dp5545
(dp5546
(dp5547
tp5548
Rp5549
(dp5550
bag1
(I4
(lp5551
(I0
I0
tp5552
a(I1
I1
tp5553
a(I1
I1
tp5554
a(I2
I2
tp5555
a(I2
I2
tp5556
a(I2
I3
tp5557
a(I2
I3
tp5558
a(I3
I3
tp5559
a(I3
I3
tp5560
a(I3
I3
tp5561
aI00
(dp5562
(dp5563
(dp5564
tp5565
Rp5566
(dp5567
bag1
(I4
(lp5568
(I0
I0
tp5569
a(I1
I1
tp5570
a(I1
I1
tp5571
a(I2
I2
tp5572
a(I2
I2
tp5573
a(I2
I2
tp5574
a(I3
I3
tp5575
a(I3
I3
tp5576
a(I3
I3
tp5577
a(I3
I3
tp5578
aI00
(dp5579
(dp5580
(dp5581
tp5582
Rp5583
(dp5584
bag1
(I4
(lp5585
(I0
I0
tp5586
a(I1
I1
tp5587
a(I1
I1
tp5588
a(I1
I3
tp5589
a(I1
I3
tp5590
a(I2
I2
tp5591
a(I2
I2
tp5592
a(I2
I2
tp5593
a(I3
I3
tp5594
a(I3
I3
tp5595
aI00
(dp5596
(dp5597
(dp5598
tp5599
Rp5600
(dp5601
bag1
(I4
(lp5602
(I0
I0
tp5603
a(I1
I1
tp5604
a(I1
I1
tp5605
a(I1
I2
tp5606
a(I1
I3
tp5607
a(I2
I2
tp5608
a(I2
I2
tp5609
a(I2
I3
tp5610
a(I3
I3
tp5611
a(I3
I3
tp5612
aI00
(dp5613
(dp5614
(dp5615
tp5616
Rp5617
(dp5618
bag1
(I4
(lp5619
(I0
I0
tp5620
a(I1
I1
tp5621
a(I1
I1
tp5622
a(I1
I1
tp5623
a(I2
I2
tp5624
a(I2
I2
tp5625
a(I2
I2
tp5626
a(I3
I3
tp5627
a(I3
I3
tp5628
a(I3
I3
tp5629
aI00
(dp5630
(dp5631
(dp5632
tp5633
Rp5634
(dp5635
bag1
(I4
(lp5636
(I0
I0
tp5637
a(I0
I3
tp5638
a(I0
I3
tp5639
a(I1
I1
tp5640
a(I1
I3
tp5641
a(I1
I3
tp5642
a(I2
I2
tp5643
a(I2
I3
tp5644
a(I2
I3
tp5645
a(I3
I3
tp5646
aI00
(dp5647
(dp5648
(dp5649
tp5650
Rp5651
(dp5652
bag1
(I4
(lp5653
(I0
I0
tp5654
a(I0
I3
tp5655
a(I0
I3
tp5656
a(I1
I1
tp5657
a(I1
I3
tp5658
a(I1
I3
tp5659
a(I2
I2
tp5660
a(I2
I2
tp5661
a(I3
I3
tp5662
a(I3
I3
tp5663
aI00
(dp5664
(dp5665
(dp5666
tp5667
Rp5668
(dp5669
bag1
(I4
(lp5670
(I0
I0
tp5671
a(I0
I3
tp5672
a(I0
I3
tp5673
a(I1
I1
tp5674
a(I1
I3
tp5675
a(I1
I3
tp5676
a(I2
I2
tp5677
a(I2
I2
tp5678
a(I2
I2
tp5679
a(I3
I3
tp5680
aI00
(dp5681
(dp5682
(dp5683
tp5684
Rp5685
(dp5686
bag1
(I4
(lp5687
(I0
I0
tp5688
a(I0
I3
tp5689
a(I0
I3
tp5690
a(I1
I1
tp5691
a(I1
I2
tp5692
a(I1
I3
tp5693
a(I2
I2
tp5694
a(I2
I3
tp5695
a(I3
I3
tp5696
a(I3
I3
tp5697
aI00
(dp5698
(dp5699
(dp5700
tp5701
Rp5702
(dp5703
bag1
(I4
(lp5704
(I0
I0
tp5705
a(I0
I3
tp5706
a(I0
I3
tp5707
a(I1
I1
tp5708
a(I1
I2
tp5709
a(I1
I3
tp5710
a(I2
I2
tp5711
a(I2
I2
tp5712
a(I2
I3
tp5713
a(I3
I3
tp5714
aI00
(dp5715
(dp5716
(dp5717
tp5718
Rp5719
(dp5720
bag1
(I4
(lp5721
(I0
I0
tp5722
a(I0
I3
tp5723
a(I0
I3
tp5724
a(I1
I1
tp5725
a(I1
I2
tp5726
a(I1
I2
tp5727
a(I2
I2
tp5728
a(I3
I3
tp5729
a(I3
I3
tp5730
a(I3
I3
tp5731
aI00
(dp5732
(dp5733
(dp5734
tp5735
Rp5736
(dp5737
bag1
(I4
(lp5738
(I0
I0
tp5739
a(I0
I3
tp5740
a(I0
I3
tp5741
a(I1
I1
tp5742
a(I1
I2
tp5743
a(I1
I2
tp5744
a(I2
I2
tp5745
a(I2
I3
tp5746
a(I2
I3
tp5747
a(I3
I3
tp5748
aI00
(dp5749
(dp5750
(dp5751
tp5752
Rp5753
(dp5754
bag1
(I4
(lp5755
(I0
I0
tp5756
a(I0
I3
tp5757
a(I0
I3
tp5758
a(I1
I1
tp5759
a(I1
I2
tp5760
a(I1
I2
tp5761
a(I2
I2
tp5762
a(I2
I2
tp5763
a(I3
I3
tp5764
a(I3
I3
tp5765
aI00
(dp5766
(dp5767
(dp5768
tp5769
Rp5770
(dp5771
bag1
(I4
(lp5772
(I0
I0
tp5773
a(I0
I3
tp5774
a(I0
I3
tp5775
a(I1
I1
tp5776
a(I1
I2
tp5777
a(I1
I2
tp5778
a(I1
I2
tp5779
a(I1
I2
tp5780
a(I2
I2
tp5781
a(I3
I3
tp5782
aI00
(dp5783
(dp5784
(dp5785
tp5786
Rp5787
(dp5788
bag1
(I4
(lp5789
(I0
I0
tp5790
a(I0
I3
tp5791
a(I0
I3
tp5792
a(I1
I1
tp5793
a(I1
I1
tp5794
a(I2
I2
tp5795
a(I2
I2
tp5796
a(I3
I3
tp5797
a(I3
I3
tp5798
a(I3
I3
tp5799
aI00
(dp5800
(dp5801
(dp5802
tp5803
Rp5804
(dp5805
bag1
(I4
(lp5806
(I0
I0
tp5807
a(I0
I3
tp5808
a(I0
I3
tp5809
a(I1
I1
tp5810
a(I1
I1
tp5811
a(I2
I2
tp5812
a(I2
I2
tp5813
a(I2
I3
tp5814
a(I2
I3
tp5815
a(I3
I3
tp5816
aI00
(dp5817
(dp5818
(dp5819
tp5820
Rp5821
(dp5822
bag1
(I4
(lp5823
(I0
I0
tp5824
a(I0
I3
tp5825
a(I0
I3
tp5826
a(I1
I1
tp5827
a(I1
I1
tp5828
a(I2
I2
tp5829
a(I2
I2
tp5830
a(I2
I2
tp5831
a(I3
I3
tp5832
a(I3
I3
tp5833
aI00
(dp5834
(dp5835
(dp5836
tp5837
Rp5838
(dp5839
bag1
(I4
(lp5840
(I0
I0
tp5841
a(I0
I3
tp5842
a(I0
I3
tp5843
a(I1
I1
tp5844
a(I1
I1
tp5845
a(I2
I2
tp5846
a(I2
I2
tp5847
a(I2
I2
tp5848
a(I2
I2
tp5849
a(I3
I3
tp5850
aI00
(dp5851
(dp5852
(dp5853
tp5854
Rp5855
(dp5856
bag1
(I4
(lp5857
(I0
I0
tp5858
a(I0
I3
tp5859
a(I0
I3
tp5860
a(I1
I1
tp5861
a(I1
I1
tp5862
a(I1
I2
tp5863
a(I1
I2
tp5864
a(I2
I2
tp5865
a(I2
I2
tp5866
a(I3
I3
tp5867
aI00
(dp5868
(dp5869
(dp5870
tp5871
Rp5872
(dp5873
bag1
(I4
(lp5874
(I0
I0
tp5875
a(I0
I3
tp5876
a(I0
I3
tp5877
a(I1
I1
tp5878
a(I1
I1
tp5879
a(I1
I1
tp5880
a(I2
I2
tp5881
a(I2
I2
tp5882
a(I2
I2
tp5883
a(I3
I3
tp5884
aI00
(dp5885
(dp5886
(dp5887
tp5888
Rp5889
(dp5890
bag1
(I4
(lp5891
(I0
I0
tp5892
a(I0
I3
tp5893
a(I0
I3
tp5894
a(I0
I3
tp5895
a(I0
I3
tp5896
a(I1
I1
tp5897
a(I1
I1
tp5898
a(I2
I2
tp5899
a(I2
I2
tp5900
a(I3
I3
tp5901
aI00
(dp5902
(dp5903
(dp5904
tp5905
Rp5906
(dp5907
bag1
(I4
(lp5908
(I0
I0
tp5909
a(I0
I2
tp5910
a(I0
I3
tp5911
a(I1
I1
tp5912
a(I1
I2
tp5913
a(I1
I3
tp5914
a(I2
I2
tp5915
a(I3
I3
tp5916
a(I3
I3
tp5917
a(I3
I3
tp5918
aI00
(dp5919
(dp5920
(dp5921
tp5922
Rp5923
(dp5924
bag1
(I4
(lp5925
(I0
I0
tp5926
a(I0
I2
tp5927
a(I0
I3
tp5928
a(I1
I1
tp5929
a(I1
I2
tp5930
a(I1
I3
tp5931
a(I2
I2
tp5932
a(I2
I3
tp5933
a(I2
I3
tp5934
a(I3
I3
tp5935
aI00
(dp5936
(dp5937
(dp5938
tp5939
Rp5940
(dp5941
bag1
(I4
(lp5942
(I0
I0
tp5943
a(I0
I2
tp5944
a(I0
I3
tp5945
a(I1
I1
tp5946
a(I1
I2
tp5947
a(I1
I3
tp5948
a(I2
I2
tp5949
a(I2
I2
tp5950
a(I3
I3
tp5951
a(I3
I3
tp5952
aI00
(dp5953
(dp5954
(dp5955
tp5956
Rp5957
(dp5958
bag1
(I4
(lp5959
(I0
I0
tp5960
a(I0
I2
tp5961
a(I0
I3
tp5962
a(I1
I1
tp5963
a(I1
I2
tp5964
a(I1
I3
tp5965
a(I1
I3
tp5966
a(I1
I3
tp5967
a(I2
I2
tp5968
a(I3
I3
tp5969
aI00
(dp5970
(dp5971
(dp5972
tp5973
Rp5974
(dp5975
bag1
(I4
(lp5976
(I0
I0
tp5977
a(I0
I2
tp5978
a(I0
I3
tp5979
a(I1
I1
tp5980
a(I1
I1
tp5981
a(I2
I2
tp5982
a(I2
I3
tp5983
a(I3
I3
tp5984
a(I3
I3
tp5985
a(I3
I3
tp5986
aI00
(dp5987
(dp5988
(dp5989
tp5990
Rp5991
(dp5992
bag1
(I4
(lp5993
(I0
I0
tp5994
a(I0
I2
tp5995
a(I0
I3
tp5996
a(I1
I1
tp5997
a(I1
I1
tp5998
a(I2
I2
tp5999
a(I2
I3
tp6000
a(I2
I3
tp6001
a(I2
I3
tp6002
a(I3
I3
tp6003
aI00
(dp6004
(dp6005
(dp6006
tp6007
Rp6008
(dp6009
bag1
(I4
(lp6010
(I0
I0
tp6011
a(I0
I2
tp6012
a(I0
I3
tp6013
a(I1
I1
tp6014
a(I1
I1
tp6015
a(I2
I2
tp6016
a(I2
I2
tp6017
a(I2
I3
tp6018
a(I3
I3
tp6019
a(I3
I3
tp6020
aI00
(dp6021
(dp6022
(dp6023
tp6024
Rp6025
(dp6026
bag1
(I4
(lp6027
(I0
I0
tp6028
a(I0
I2
tp6029
a(I0
I3
tp6030
a(I1
I1
tp6031
a(I1
I1
tp6032
a(I1
I3
tp6033
a(I1
I3
tp6034
a(I2
I2
tp6035
a(I2
I3
tp6036
a(I3
I3
tp6037
aI00
(dp6038
(dp6039
(dp6040
tp6041
Rp6042
(dp6043
bag1
(I4
(lp6044
(I0
I0
tp6045
a(I0
I2
tp6046
a(I0
I3
tp6047
a(I1
I1
tp6048
a(I1
I1
tp6049
a(I1
I2
tp6050
a(I1
I3
tp6051
a(I2
I2
tp6052
a(I3
I3
tp6053
a(I3
I3
tp6054
aI00
(dp6055
(dp6056
(dp6057
tp6058
Rp6059
(dp6060
bag1
(I4
(lp6061
(I0
I0
tp6062
a(I0
I2
tp6063
a(I0
I3
tp6064
a(I1
I1
tp6065
a(I1
I1
tp6066
a(I1
I1
tp6067
a(I2
I2
tp6068
a(I2
I3
tp6069
a(I3
I3
tp6070
a(I3
I3
tp6071
aI00
(dp6072
(dp6073
(dp6074
tp6075
Rp6076
(dp6077
bag1
(I4
(lp6078
(I0
I0
tp6079
a(I0
I2
tp6080
a(I0
I3
tp6081
a(I1
I1
tp6082
a(I1
I1
tp6083
a(I1
I1
tp6084
a(I1
I1
tp6085
a(I2
I2
tp6086
a(I2
I3
tp6087
a(I3
I3
tp6088
aI00
(dp6089
(dp6090
(dp6091
tp6092
Rp6093
(dp6094
bag1
(I4
(lp6095
(I0
I0
tp6096
a(I0
I0
tp6097
a(I1
I1
tp6098
a(I1
I1
tp6099
a(I2
I2
tp6100
a(I2
I2
tp6101
a(I3
I3
tp6102
a(I3
I3
tp6103
a(I3
I3
tp6104
a(I3
I3
tp6105
aI00
(dp6106
(dp6107
(dp6108
tp6109
Rp6110
(dp6111
bag1
(I4
(lp6112
(I0
I0
tp6113
a(I0
I0
tp6114
a(I1
I1
tp6115
a(I1
I1
tp6116
a(I2
I2
tp6117
a(I2
I2
tp6118
a(I2
I3
tp6119
a(I2
I3
tp6120
a(I3
I3
tp6121
a(I3
I3
tp6122
aI00
(dp6123
(dp6124
(dp6125
tp6126
Rp6127
(dp6128
bag1
(I4
(lp6129
(I0
I0
tp6130
a(I0
I0
tp6131
a(I1
I1
tp6132
a(I1
I1
tp6133
a(I2
I2
tp6134
a(I2
I2
tp6135
a(I2
I2
tp6136
a(I3
I3
tp6137
a(I3
I3
tp6138
a(I3
I3
tp6139
aI00
(dp6140
(dp6141
(dp6142
tp6143
Rp6144
(dp6145
ba.