(lp0
cigraph
Graph
p1
(I5
(lp2
(I0
I3
tp3
a(I0
I4
tp4
a(I0
I4
tp5
a(I0
I4
tp6
a(I1
I2
tp7
a(I1
I3
tp8
a(I1
I3
tp9
a(I1
I4
tp10
a(I2
I2
tp11
a(I2
I3
tp12
aI00
(dp13
(dp14
(dp15
tp16
Rp17
(dp18
bag1
(I5
(lp19
(I0
I3
tp20
a(I0
I4
tp21
a(I0
I4
tp22
a(I0
I4
tp23
a(I1
I2
tp24
a(I1
I3
tp25
a(I1
I3
tp26
a(I1
I3
tp27
a(I2
I2
tp28
a(I2
I4
tp29
aI00
(dp30
(dp31
(dp32
tp33
Rp34
(dp35
bag1
(I5
(lp36
(I0
I3
tp37
a(I0
I4
tp38
a(I0
I4
tp39
a(I0
I4
tp40
a(I1
I2
tp41
a(I1
I2
tp42
a(I1
I3
tp43
a(I1
I4
tp44
a(I2
I3
tp45
a(I2
I3
tp46
aI00
(dp47
(dp48
(dp49
tp50
Rp51
(dp52
bag1
(I5
(lp53
(I0
I3
tp54
a(I0
I4
tp55
a(I0
I4
tp56
a(I0
I4
tp57
a(I1
I2
tp58
a(I1
I2
tp59
a(I1
I3
tp60
a(I1
I4
tp61
a(I2
I2
tp62
a(I3
I3
tp63
aI00
(dp64
(dp65
(dp66
tp67
Rp68
(dp69
bag1
(I5
(lp70
(I0
I3
tp71
a(I0
I4
tp72
a(I0
I4
tp73
a(I0
I4
tp74
a(I1
I2
tp75
a(I1
I2
tp76
a(I1
I3
tp77
a(I1
I3
tp78
a(I2
I2
tp79
a(I3
I4
tp80
aI00
(dp81
(dp82
(dp83
tp84
Rp85
(dp86
bag1
(I5
(lp87
(I0
I3
tp88
a(I0
I4
tp89
a(I0
I4
tp90
a(I0
I4
tp91
a(I1
I2
tp92
a(I1
I2
tp93
a(I1
I2
tp94
a(I1
I3
tp95
a(I2
I3
tp96
a(I3
I4
tp97
aI00
(dp98
(dp99
(dp100
tp101
Rp102
(dp103
bag1
(I5
(lp104
(I0
I3
tp105
a(I0
I4
tp106
a(I0
I4
tp107
a(I0
I4
tp108
a(I1
I1
tp109
a(I1
I2
tp110
a(I1
I4
tp111
a(I2
I2
tp112
a(I2
I3
tp113
a(I3
I3
tp114
aI00
(dp115
(dp116
(dp117
tp118
Rp119
(dp120
bag1
(I5
(lp121
(I0
I3
tp122
a(I0
I4
tp123
a(I0
I4
tp124
a(I0
I4
tp125
a(I1
I1
tp126
a(I1
I2
tp127
a(I1
I3
tp128
a(I2
I2
tp129
a(I2
I3
tp130
a(I3
I4
tp131
aI00
(dp132
(dp133
(dp134
tp135
Rp136
(dp137
bag1
(I5
(lp138
(I0
I3
tp139
a(I0
I3
tp140
a(I0
I4
tp141
a(I0
I4
tp142
a(I1
I2
tp143
a(I1
I3
tp144
a(I1
I4
tp145
a(I1
I4
tp146
a(I2
I2
tp147
a(I2
I3
tp148
aI00
(dp149
(dp150
(dp151
tp152
Rp153
(dp154
bag1
(I5
(lp155
(I0
I3
tp156
a(I0
I3
tp157
a(I0
I4
tp158
a(I0
I4
tp159
a(I1
I2
tp160
a(I1
I2
tp161
a(I1
I4
tp162
a(I1
I4
tp163
a(I2
I3
tp164
a(I2
I3
tp165
aI00
(dp166
(dp167
(dp168
tp169
Rp170
(dp171
bag1
(I5
(lp172
(I0
I3
tp173
a(I0
I3
tp174
a(I0
I4
tp175
a(I0
I4
tp176
a(I1
I2
tp177
a(I1
I2
tp178
a(I1
I4
tp179
a(I1
I4
tp180
a(I2
I2
tp181
a(I3
I3
tp182
aI00
(dp183
(dp184
(dp185
tp186
Rp187
(dp188
bag1
(I5
(lp189
(I0
I3
tp190
a(I0
I3
tp191
a(I0
I4
tp192
a(I0
I4
tp193
a(I1
I2
tp194
a(I1
I2
tp195
a(I1
I3
tp196
a(I1
I4
tp197
a(I2
I3
tp198
a(I2
I4
tp199
aI00
(dp200
(dp201
(dp202
tp203
Rp204
(dp205
bag1
(I5
(lp206
(I0
I3
tp207
a(I0
I3
tp208
a(I0
I4
tp209
a(I0
I4
tp210
a(I1
I2
tp211
a(I1
I2
tp212
a(I1
I3
tp213
a(I1
I4
tp214
a(I2
I2
tp215
a(I3
I4
tp216
aI00
(dp217
(dp218
(dp219
tp220
Rp221
(dp222
bag1
(I5
(lp223
(I0
I3
tp224
a(I0
I3
tp225
a(I0
I4
tp226
a(I0
I4
tp227
a(I1
I1
tp228
a(I1
I3
tp229
a(I1
I4
tp230
a(I2
I2
tp231
a(I2
I3
tp232
a(I2
I4
tp233
aI00
(dp234
(dp235
(dp236
tp237
Rp238
(dp239
bag1
(I5
(lp240
(I0
I3
tp241
a(I0
I3
tp242
a(I0
I4
tp243
a(I0
I4
tp244
a(I1
I1
tp245
a(I1
I2
tp246
a(I1
I4
tp247
a(I2
I2
tp248
a(I2
I4
tp249
a(I3
I3
tp250
aI00
(dp251
(dp252
(dp253
tp254
Rp255
(dp256
bag1
(I5
(lp257
(I0
I3
tp258
a(I0
I3
tp259
a(I0
I4
tp260
a(I0
I4
tp261
a(I1
I1
tp262
a(I1
I2
tp263
a(I1
I4
tp264
a(I2
I2
tp265
a(I2
I3
tp266
a(I3
I4
tp267
aI00
(dp268
(dp269
(dp270
tp271
Rp272
(dp273
bag1
(I5
(lp274
(I0
I2
tp275
a(I0
I3
tp276
a(I0
I4
tp277
a(I0
I4
tp278
a(I1
I2
tp279
a(I1
I3
tp280
a(I1
I3
tp281
a(I1
I4
tp282
a(I2
I3
tp283
a(I2
I4
tp284
aI00
(dp285
(dp286
(dp287
tp288
Rp289
(dp290
bag1
(I5
(lp291
(I0
I2
tp292
a(I0
I3
tp293
a(I0
I4
tp294
a(I0
I4
tp295
a(I1
I2
tp296
a(I1
I3
tp297
a(I1
I3
tp298
a(I1
I4
tp299
a(I2
I2
tp300
a(I3
I4
tp301
aI00
(dp302
(dp303
(dp304
tp305
Rp306
(dp307
bag1
(I5
(lp308
(I0
I2
tp309
a(I0
I3
tp310
a(I0
I4
tp311
a(I0
I4
tp312
a(I1
I1
tp313
a(I1
I3
tp314
a(I1
I4
tp315
a(I2
I2
tp316
a(I2
I4
tp317
a(I3
I3
tp318
aI00
(dp319
(dp320
(dp321
tp322
Rp323
(dp324
bag1
(I5
(lp325
(I0
I2
tp326
a(I0
I3
tp327
a(I0
I4
tp328
a(I0
I4
tp329
a(I1
I1
tp330
a(I1
I3
tp331
a(I1
I4
tp332
a(I2
I2
tp333
a(I2
I3
tp334
a(I3
I4
tp335
aI00
(dp336
(dp337
(dp338
tp339
Rp340
(dp341
bag1
(I5
(lp342
(I0
I2
tp343
a(I0
I3
tp344
a(I0
I4
tp345
a(I0
I4
tp346
a(I1
I1
tp347
a(I1
I3
tp348
a(I1
I3
tp349
a(I2
I2
tp350
a(I2
I4
tp351
a(I3
I4
tp352
aI00
(dp353
(dp354
(dp355
tp356
Rp357
(dp358
bag1
(I5
(lp359
(I0
I2
tp360
a(I0
I3
tp361
a(I0
I4
tp362
a(I0
I4
tp363
a(I1
I1
tp364
a(I1
I3
tp365
a(I1
I3
tp366
a(I2
I2
tp367
a(I2
I3
tp368
a(I4
I4
tp369
aI00
(dp370
(dp371
(dp372
tp373
Rp374
(dp375
bag1
(I5
(lp376
(I0
I2
tp377
a(I0
I3
tp378
a(I0
I4
tp379
a(I0
I4
tp380
a(I1
I1
tp381
a(I1
I2
tp382
a(I1
I3
tp383
a(I2
I3
tp384
a(I2
I4
tp385
a(I3
I4
tp386
aI00
(dp387
(dp388
(dp389
tp390
Rp391
(dp392
bag1
(I5
(lp393
(I0
I2
tp394
a(I0
I3
tp395
a(I0
I4
tp396
a(I0
I4
tp397
a(I1
I1
tp398
a(I1
I2
tp399
a(I1
I3
tp400
a(I2
I2
tp401
a(I3
I3
tp402
a(I4
I4
tp403
aI00
(dp404
(dp405
(dp406
tp407
Rp408
(dp409
bag1
(I5
(lp410
(I0
I1
tp411
a(I0
I2
tp412
a(I0
I3
tp413
a(I0
I4
tp414
a(I1
I2
tp415
a(I1
I3
tp416
a(I1
I4
tp417
a(I2
I3
tp418
a(I2
I4
tp419
a(I3
I4
tp420
aI00
(dp421
(dp422
(dp423
tp424
Rp425
(dp426
bag1
(I5
(lp427
(I0
I1
tp428
a(I0
I2
tp429
a(I0
I3
tp430
a(I0
I4
tp431
a(I1
I2
tp432
a(I1
I3
tp433
a(I1
I4
tp434
a(I2
I2
tp435
a(I3
I3
tp436
a(I4
I4
tp437
aI00
(dp438
(dp439
(dp440
tp441
Rp442
(dp443
bag1
(I5
(lp444
(I0
I1
tp445
a(I0
I2
tp446
a(I0
I3
tp447
a(I0
I4
tp448
a(I1
I1
tp449
a(I1
I4
tp450
a(I2
I2
tp451
a(I2
I3
tp452
a(I3
I3
tp453
a(I4
I4
tp454
aI00
(dp455
(dp456
(dp457
tp458
Rp459
(dp460
bag1
(I5
(lp461
(I0
I0
tp462
a(I0
I3
tp463
a(I0
I4
tp464
a(I1
I1
tp465
a(I1
I2
tp466
a(I1
I4
tp467
a(I2
I2
tp468
a(I2
I3
tp469
a(I3
I3
tp470
a(I4
I4
tp471
aI00
(dp472
(dp473
(dp474
tp475
Rp476
(dp477
bag1
(I5
(lp478
(I0
I4
tp479
a(I0
I4
tp480
a(I0
I4
tp481
a(I0
I4
tp482
a(I1
I3
tp483
a(I1
I3
tp484
a(I1
I4
tp485
a(I1
I4
tp486
a(I2
I2
tp487
a(I2
I3
tp488
a(I2
I3
tp489
aI00
(dp490
(dp491
(dp492
tp493
Rp494
(dp495
bag1
(I5
(lp496
(I0
I4
tp497
a(I0
I4
tp498
a(I0
I4
tp499
a(I0
I4
tp500
a(I1
I3
tp501
a(I1
I3
tp502
a(I1
I3
tp503
a(I1
I4
tp504
a(I2
I2
tp505
a(I2
I3
tp506
a(I2
I4
tp507
aI00
(dp508
(dp509
(dp510
tp511
Rp512
(dp513
bag1
(I5
(lp514
(I0
I4
tp515
a(I0
I4
tp516
a(I0
I4
tp517
a(I0
I4
tp518
a(I1
I2
tp519
a(I1
I3
tp520
a(I1
I4
tp521
a(I1
I4
tp522
a(I2
I3
tp523
a(I2
I3
tp524
a(I2
I3
tp525
aI00
(dp526
(dp527
(dp528
tp529
Rp530
(dp531
bag1
(I5
(lp532
(I0
I4
tp533
a(I0
I4
tp534
a(I0
I4
tp535
a(I0
I4
tp536
a(I1
I2
tp537
a(I1
I3
tp538
a(I1
I4
tp539
a(I1
I4
tp540
a(I2
I2
tp541
a(I2
I3
tp542
a(I3
I3
tp543
aI00
(dp544
(dp545
(dp546
tp547
Rp548
(dp549
bag1
(I5
(lp550
(I0
I4
tp551
a(I0
I4
tp552
a(I0
I4
tp553
a(I0
I4
tp554
a(I1
I2
tp555
a(I1
I3
tp556
a(I1
I3
tp557
a(I1
I4
tp558
a(I2
I3
tp559
a(I2
I3
tp560
a(I2
I4
tp561
aI00
(dp562
(dp563
(dp564
tp565
Rp566
(dp567
bag1
(I5
(lp568
(I0
I4
tp569
a(I0
I4
tp570
a(I0
I4
tp571
a(I0
I4
tp572
a(I1
I2
tp573
a(I1
I3
tp574
a(I1
I3
tp575
a(I1
I4
tp576
a(I2
I2
tp577
a(I2
I4
tp578
a(I3
I3
tp579
aI00
(dp580
(dp581
(dp582
tp583
Rp584
(dp585
bag1
(I5
(lp586
(I0
I4
tp587
a(I0
I4
tp588
a(I0
I4
tp589
a(I0
I4
tp590
a(I1
I2
tp591
a(I1
I3
tp592
a(I1
I3
tp593
a(I1
I4
tp594
a(I2
I2
tp595
a(I2
I3
tp596
a(I3
I4
tp597
aI00
(dp598
(dp599
(dp600
tp601
Rp602
(dp603
bag1
(I5
(lp604
(I0
I4
tp605
a(I0
I4
tp606
a(I0
I4
tp607
a(I0
I4
tp608
a(I1
I1
tp609
a(I1
I3
tp610
a(I1
I4
tp611
a(I2
I2
tp612
a(I2
I3
tp613
a(I2
I4
tp614
a(I3
I3
tp615
aI00
(dp616
(dp617
(dp618
tp619
Rp620
(dp621
bag1
(I5
(lp622
(I0
I3
tp623
a(I0
I4
tp624
a(I0
I4
tp625
a(I0
I4
tp626
a(I1
I3
tp627
a(I1
I4
tp628
a(I1
I4
tp629
a(I1
I4
tp630
a(I2
I2
tp631
a(I2
I3
tp632
a(I2
I3
tp633
aI00
(dp634
(dp635
(dp636
tp637
Rp638
(dp639
bag1
(I5
(lp640
(I0
I3
tp641
a(I0
I4
tp642
a(I0
I4
tp643
a(I0
I4
tp644
a(I1
I3
tp645
a(I1
I3
tp646
a(I1
I4
tp647
a(I1
I4
tp648
a(I2
I2
tp649
a(I2
I3
tp650
a(I2
I4
tp651
aI00
(dp652
(dp653
(dp654
tp655
Rp656
(dp657
bag1
(I5
(lp658
(I0
I3
tp659
a(I0
I4
tp660
a(I0
I4
tp661
a(I0
I4
tp662
a(I1
I3
tp663
a(I1
I3
tp664
a(I1
I3
tp665
a(I1
I4
tp666
a(I2
I2
tp667
a(I2
I4
tp668
a(I2
I4
tp669
aI00
(dp670
(dp671
(dp672
tp673
Rp674
(dp675
bag1
(I5
(lp676
(I0
I3
tp677
a(I0
I4
tp678
a(I0
I4
tp679
a(I0
I4
tp680
a(I1
I2
tp681
a(I1
I4
tp682
a(I1
I4
tp683
a(I1
I4
tp684
a(I2
I3
tp685
a(I2
I3
tp686
a(I2
I3
tp687
aI00
(dp688
(dp689
(dp690
tp691
Rp692
(dp693
bag1
(I5
(lp694
(I0
I3
tp695
a(I0
I4
tp696
a(I0
I4
tp697
a(I0
I4
tp698
a(I1
I2
tp699
a(I1
I4
tp700
a(I1
I4
tp701
a(I1
I4
tp702
a(I2
I2
tp703
a(I2
I3
tp704
a(I3
I3
tp705
aI00
(dp706
(dp707
(dp708
tp709
Rp710
(dp711
bag1
(I5
(lp712
(I0
I3
tp713
a(I0
I4
tp714
a(I0
I4
tp715
a(I0
I4
tp716
a(I1
I2
tp717
a(I1
I3
tp718
a(I1
I4
tp719
a(I1
I4
tp720
a(I2
I3
tp721
a(I2
I3
tp722
a(I2
I4
tp723
aI00
(dp724
(dp725
(dp726
tp727
Rp728
(dp729
bag1
(I5
(lp730
(I0
I3
tp731
a(I0
I4
tp732
a(I0
I4
tp733
a(I0
I4
tp734
a(I1
I2
tp735
a(I1
I3
tp736
a(I1
I4
tp737
a(I1
I4
tp738
a(I2
I2
tp739
a(I2
I4
tp740
a(I3
I3
tp741
aI00
(dp742
(dp743
(dp744
tp745
Rp746
(dp747
bag1
(I5
(lp748
(I0
I3
tp749
a(I0
I4
tp750
a(I0
I4
tp751
a(I0
I4
tp752
a(I1
I2
tp753
a(I1
I3
tp754
a(I1
I4
tp755
a(I1
I4
tp756
a(I2
I2
tp757
a(I2
I3
tp758
a(I3
I4
tp759
aI00
(dp760
(dp761
(dp762
tp763
Rp764
(dp765
bag1
(I5
(lp766
(I0
I3
tp767
a(I0
I4
tp768
a(I0
I4
tp769
a(I0
I4
tp770
a(I1
I2
tp771
a(I1
I3
tp772
a(I1
I3
tp773
a(I1
I4
tp774
a(I2
I3
tp775
a(I2
I3
tp776
a(I2
I3
tp777
aI00
(dp778
(dp779
(dp780
tp781
Rp782
(dp783
bag1
(I5
(lp784
(I0
I3
tp785
a(I0
I4
tp786
a(I0
I4
tp787
a(I0
I4
tp788
a(I1
I2
tp789
a(I1
I3
tp790
a(I1
I3
tp791
a(I1
I4
tp792
a(I2
I2
tp793
a(I2
I4
tp794
a(I3
I4
tp795
aI00
(dp796
(dp797
(dp798
tp799
Rp800
(dp801
bag1
(I5
(lp802
(I0
I3
tp803
a(I0
I4
tp804
a(I0
I4
tp805
a(I0
I4
tp806
a(I1
I2
tp807
a(I1
I3
tp808
a(I1
I3
tp809
a(I1
I4
tp810
a(I2
I2
tp811
a(I2
I3
tp812
a(I4
I4
tp813
aI00
(dp814
(dp815
(dp816
tp817
Rp818
(dp819
bag1
(I5
(lp820
(I0
I3
tp821
a(I0
I4
tp822
a(I0
I4
tp823
a(I0
I4
tp824
a(I1
I2
tp825
a(I1
I3
tp826
a(I1
I3
tp827
a(I1
I4
tp828
a(I2
I2
tp829
a(I2
I3
tp830
a(I3
I3
tp831
aI00
(dp832
(dp833
(dp834
tp835
Rp836
(dp837
bag1
(I5
(lp838
(I0
I3
tp839
a(I0
I4
tp840
a(I0
I4
tp841
a(I0
I4
tp842
a(I1
I2
tp843
a(I1
I3
tp844
a(I1
I3
tp845
a(I1
I4
tp846
a(I2
I2
tp847
a(I2
I2
tp848
a(I2
I3
tp849
aI00
(dp850
(dp851
(dp852
tp853
Rp854
(dp855
bag1
(I5
(lp856
(I0
I3
tp857
a(I0
I4
tp858
a(I0
I4
tp859
a(I0
I4
tp860
a(I1
I2
tp861
a(I1
I3
tp862
a(I1
I3
tp863
a(I1
I3
tp864
a(I2
I2
tp865
a(I2
I4
tp866
a(I4
I4
tp867
aI00
(dp868
(dp869
(dp870
tp871
Rp872
(dp873
bag1
(I5
(lp874
(I0
I3
tp875
a(I0
I4
tp876
a(I0
I4
tp877
a(I0
I4
tp878
a(I1
I2
tp879
a(I1
I3
tp880
a(I1
I3
tp881
a(I1
I3
tp882
a(I2
I2
tp883
a(I2
I4
tp884
a(I3
I3
tp885
aI00
(dp886
(dp887
(dp888
tp889
Rp890
(dp891
bag1
(I5
(lp892
(I0
I3
tp893
a(I0
I4
tp894
a(I0
I4
tp895
a(I0
I4
tp896
a(I1
I2
tp897
a(I1
I3
tp898
a(I1
I3
tp899
a(I1
I3
tp900
a(I2
I2
tp901
a(I2
I3
tp902
a(I3
I4
tp903
aI00
(dp904
(dp905
(dp906
tp907
Rp908
(dp909
bag1
(I5
(lp910
(I0
I3
tp911
a(I0
I4
tp912
a(I0
I4
tp913
a(I0
I4
tp914
a(I1
I2
tp915
a(I1
I3
tp916
a(I1
I3
tp917
a(I1
I3
tp918
a(I2
I2
tp919
a(I2
I2
tp920
a(I2
I4
tp921
aI00
(dp922
(dp923
(dp924
tp925
Rp926
(dp927
bag1
(I5
(lp928
(I0
I3
tp929
a(I0
I4
tp930
a(I0
I4
tp931
a(I0
I4
tp932
a(I1
I2
tp933
a(I1
I2
tp934
a(I1
I4
tp935
a(I1
I4
tp936
a(I2
I3
tp937
a(I2
I4
tp938
a(I3
I3
tp939
aI00
(dp940
(dp941
(dp942
tp943
Rp944
(dp945
bag1
(I5
(lp946
(I0
I3
tp947
a(I0
I4
tp948
a(I0
I4
tp949
a(I0
I4
tp950
a(I1
I2
tp951
a(I1
I2
tp952
a(I1
I4
tp953
a(I1
I4
tp954
a(I2
I3
tp955
a(I2
I3
tp956
a(I3
I4
tp957
aI00
(dp958
(dp959
(dp960
tp961
Rp962
(dp963
bag1
(I5
(lp964
(I0
I3
tp965
a(I0
I4
tp966
a(I0
I4
tp967
a(I0
I4
tp968
a(I1
I2
tp969
a(I1
I2
tp970
a(I1
I4
tp971
a(I1
I4
tp972
a(I2
I2
tp973
a(I3
I3
tp974
a(I3
I4
tp975
aI00
(dp976
(dp977
(dp978
tp979
Rp980
(dp981
bag1
(I5
(lp982
(I0
I3
tp983
a(I0
I4
tp984
a(I0
I4
tp985
a(I0
I4
tp986
a(I1
I2
tp987
a(I1
I2
tp988
a(I1
I3
tp989
a(I1
I4
tp990
a(I2
I3
tp991
a(I2
I4
tp992
a(I3
I4
tp993
aI00
(dp994
(dp995
(dp996
tp997
Rp998
(dp999
bag1
(I5
(lp1000
(I0
I3
tp1001
a(I0
I4
tp1002
a(I0
I4
tp1003
a(I0
I4
tp1004
a(I1
I2
tp1005
a(I1
I2
tp1006
a(I1
I3
tp1007
a(I1
I4
tp1008
a(I2
I3
tp1009
a(I2
I3
tp1010
a(I4
I4
tp1011
aI00
(dp1012
(dp1013
(dp1014
tp1015
Rp1016
(dp1017
bag1
(I5
(lp1018
(I0
I3
tp1019
a(I0
I4
tp1020
a(I0
I4
tp1021
a(I0
I4
tp1022
a(I1
I2
tp1023
a(I1
I2
tp1024
a(I1
I3
tp1025
a(I1
I4
tp1026
a(I2
I3
tp1027
a(I2
I3
tp1028
a(I3
I3
tp1029
aI00
(dp1030
(dp1031
(dp1032
tp1033
Rp1034
(dp1035
bag1
(I5
(lp1036
(I0
I3
tp1037
a(I0
I4
tp1038
a(I0
I4
tp1039
a(I0
I4
tp1040
a(I1
I2
tp1041
a(I1
I2
tp1042
a(I1
I3
tp1043
a(I1
I4
tp1044
a(I2
I2
tp1045
a(I3
I4
tp1046
a(I3
I4
tp1047
aI00
(dp1048
(dp1049
(dp1050
tp1051
Rp1052
(dp1053
bag1
(I5
(lp1054
(I0
I3
tp1055
a(I0
I4
tp1056
a(I0
I4
tp1057
a(I0
I4
tp1058
a(I1
I2
tp1059
a(I1
I2
tp1060
a(I1
I3
tp1061
a(I1
I4
tp1062
a(I2
I2
tp1063
a(I3
I3
tp1064
a(I4
I4
tp1065
aI00
(dp1066
(dp1067
(dp1068
tp1069
Rp1070
(dp1071
bag1
(I5
(lp1072
(I0
I3
tp1073
a(I0
I4
tp1074
a(I0
I4
tp1075
a(I0
I4
tp1076
a(I1
I2
tp1077
a(I1
I2
tp1078
a(I1
I3
tp1079
a(I1
I4
tp1080
a(I2
I2
tp1081
a(I3
I3
tp1082
a(I3
I3
tp1083
aI00
(dp1084
(dp1085
(dp1086
tp1087
Rp1088
(dp1089
bag1
(I5
(lp1090
(I0
I3
tp1091
a(I0
I4
tp1092
a(I0
I4
tp1093
a(I0
I4
tp1094
a(I1
I2
tp1095
a(I1
I2
tp1096
a(I1
I3
tp1097
a(I1
I4
tp1098
a(I2
I2
tp1099
a(I2
I3
tp1100
a(I2
I3
tp1101
aI00
(dp1102
(dp1103
(dp1104
tp1105
Rp1106
(dp1107
bag1
(I5
(lp1108
(I0
I3
tp1109
a(I0
I4
tp1110
a(I0
I4
tp1111
a(I0
I4
tp1112
a(I1
I2
tp1113
a(I1
I2
tp1114
a(I1
I3
tp1115
a(I1
I4
tp1116
a(I2
I2
tp1117
a(I2
I2
tp1118
a(I3
I3
tp1119
aI00
(dp1120
(dp1121
(dp1122
tp1123
Rp1124
(dp1125
bag1
(I5
(lp1126
(I0
I3
tp1127
a(I0
I4
tp1128
a(I0
I4
tp1129
a(I0
I4
tp1130
a(I1
I2
tp1131
a(I1
I2
tp1132
a(I1
I3
tp1133
a(I1
I3
tp1134
a(I2
I3
tp1135
a(I2
I3
tp1136
a(I3
I4
tp1137
aI00
(dp1138
(dp1139
(dp1140
tp1141
Rp1142
(dp1143
bag1
(I5
(lp1144
(I0
I3
tp1145
a(I0
I4
tp1146
a(I0
I4
tp1147
a(I0
I4
tp1148
a(I1
I2
tp1149
a(I1
I2
tp1150
a(I1
I3
tp1151
a(I1
I3
tp1152
a(I2
I2
tp1153
a(I3
I4
tp1154
a(I4
I4
tp1155
aI00
(dp1156
(dp1157
(dp1158
tp1159
Rp1160
(dp1161
bag1
(I5
(lp1162
(I0
I3
tp1163
a(I0
I4
tp1164
a(I0
I4
tp1165
a(I0
I4
tp1166
a(I1
I2
tp1167
a(I1
I2
tp1168
a(I1
I3
tp1169
a(I1
I3
tp1170
a(I2
I2
tp1171
a(I3
I3
tp1172
a(I3
I4
tp1173
aI00
(dp1174
(dp1175
(dp1176
tp1177
Rp1178
(dp1179
bag1
(I5
(lp1180
(I0
I3
tp1181
a(I0
I4
tp1182
a(I0
I4
tp1183
a(I0
I4
tp1184
a(I1
I2
tp1185
a(I1
I2
tp1186
a(I1
I3
tp1187
a(I1
I3
tp1188
a(I2
I2
tp1189
a(I2
I2
tp1190
a(I3
I4
tp1191
aI00
(dp1192
(dp1193
(dp1194
tp1195
Rp1196
(dp1197
bag1
(I5
(lp1198
(I0
I3
tp1199
a(I0
I4
tp1200
a(I0
I4
tp1201
a(I0
I4
tp1202
a(I1
I2
tp1203
a(I1
I2
tp1204
a(I1
I2
tp1205
a(I1
I3
tp1206
a(I2
I3
tp1207
a(I3
I4
tp1208
a(I4
I4
tp1209
aI00
(dp1210
(dp1211
(dp1212
tp1213
Rp1214
(dp1215
bag1
(I5
(lp1216
(I0
I3
tp1217
a(I0
I4
tp1218
a(I0
I4
tp1219
a(I0
I4
tp1220
a(I1
I2
tp1221
a(I1
I2
tp1222
a(I1
I2
tp1223
a(I1
I3
tp1224
a(I2
I3
tp1225
a(I3
I3
tp1226
a(I3
I4
tp1227
aI00
(dp1228
(dp1229
(dp1230
tp1231
Rp1232
(dp1233
bag1
(I5
(lp1234
(I0
I3
tp1235
a(I0
I4
tp1236
a(I0
I4
tp1237
a(I0
I4
tp1238
a(I1
I1
tp1239
a(I1
I4
tp1240
a(I1
I4
tp1241
a(I2
I2
tp1242
a(I2
I3
tp1243
a(I2
I4
tp1244
a(I3
I3
tp1245
aI00
(dp1246
(dp1247
(dp1248
tp1249
Rp1250
(dp1251
bag1
(I5
(lp1252
(I0
I3
tp1253
a(I0
I4
tp1254
a(I0
I4
tp1255
a(I0
I4
tp1256
a(I1
I1
tp1257
a(I1
I4
tp1258
a(I1
I4
tp1259
a(I2
I2
tp1260
a(I2
I3
tp1261
a(I2
I3
tp1262
a(I3
I4
tp1263
aI00
(dp1264
(dp1265
(dp1266
tp1267
Rp1268
(dp1269
bag1
(I5
(lp1270
(I0
I3
tp1271
a(I0
I4
tp1272
a(I0
I4
tp1273
a(I0
I4
tp1274
a(I1
I1
tp1275
a(I1
I3
tp1276
a(I1
I4
tp1277
a(I2
I2
tp1278
a(I2
I3
tp1279
a(I2
I4
tp1280
a(I3
I4
tp1281
aI00
(dp1282
(dp1283
(dp1284
tp1285
Rp1286
(dp1287
bag1
(I5
(lp1288
(I0
I3
tp1289
a(I0
I4
tp1290
a(I0
I4
tp1291
a(I0
I4
tp1292
a(I1
I1
tp1293
a(I1
I3
tp1294
a(I1
I4
tp1295
a(I2
I2
tp1296
a(I2
I3
tp1297
a(I2
I3
tp1298
a(I4
I4
tp1299
aI00
(dp1300
(dp1301
(dp1302
tp1303
Rp1304
(dp1305
bag1
(I5
(lp1306
(I0
I3
tp1307
a(I0
I4
tp1308
a(I0
I4
tp1309
a(I0
I4
tp1310
a(I1
I1
tp1311
a(I1
I3
tp1312
a(I1
I4
tp1313
a(I2
I2
tp1314
a(I2
I3
tp1315
a(I2
I3
tp1316
a(I3
I3
tp1317
aI00
(dp1318
(dp1319
(dp1320
tp1321
Rp1322
(dp1323
bag1
(I5
(lp1324
(I0
I3
tp1325
a(I0
I4
tp1326
a(I0
I4
tp1327
a(I0
I4
tp1328
a(I1
I1
tp1329
a(I1
I3
tp1330
a(I1
I3
tp1331
a(I2
I2
tp1332
a(I2
I3
tp1333
a(I2
I3
tp1334
a(I3
I4
tp1335
aI00
(dp1336
(dp1337
(dp1338
tp1339
Rp1340
(dp1341
bag1
(I5
(lp1342
(I0
I3
tp1343
a(I0
I4
tp1344
a(I0
I4
tp1345
a(I0
I4
tp1346
a(I1
I1
tp1347
a(I1
I2
tp1348
a(I1
I4
tp1349
a(I2
I2
tp1350
a(I2
I4
tp1351
a(I3
I3
tp1352
a(I3
I4
tp1353
aI00
(dp1354
(dp1355
(dp1356
tp1357
Rp1358
(dp1359
bag1
(I5
(lp1360
(I0
I3
tp1361
a(I0
I4
tp1362
a(I0
I4
tp1363
a(I0
I4
tp1364
a(I1
I1
tp1365
a(I1
I2
tp1366
a(I1
I4
tp1367
a(I2
I2
tp1368
a(I2
I3
tp1369
a(I3
I4
tp1370
a(I3
I4
tp1371
aI00
(dp1372
(dp1373
(dp1374
tp1375
Rp1376
(dp1377
bag1
(I5
(lp1378
(I0
I3
tp1379
a(I0
I4
tp1380
a(I0
I4
tp1381
a(I0
I4
tp1382
a(I1
I1
tp1383
a(I1
I2
tp1384
a(I1
I4
tp1385
a(I2
I2
tp1386
a(I2
I3
tp1387
a(I3
I3
tp1388
a(I4
I4
tp1389
aI00
(dp1390
(dp1391
(dp1392
tp1393
Rp1394
(dp1395
bag1
(I5
(lp1396
(I0
I3
tp1397
a(I0
I4
tp1398
a(I0
I4
tp1399
a(I0
I4
tp1400
a(I1
I1
tp1401
a(I1
I2
tp1402
a(I1
I4
tp1403
a(I2
I2
tp1404
a(I2
I3
tp1405
a(I3
I3
tp1406
a(I3
I3
tp1407
aI00
(dp1408
(dp1409
(dp1410
tp1411
Rp1412
(dp1413
bag1
(I5
(lp1414
(I0
I3
tp1415
a(I0
I4
tp1416
a(I0
I4
tp1417
a(I0
I4
tp1418
a(I1
I1
tp1419
a(I1
I2
tp1420
a(I1
I4
tp1421
a(I2
I2
tp1422
a(I2
I2
tp1423
a(I2
I3
tp1424
a(I3
I3
tp1425
aI00
(dp1426
(dp1427
(dp1428
tp1429
Rp1430
(dp1431
bag1
(I5
(lp1432
(I0
I3
tp1433
a(I0
I4
tp1434
a(I0
I4
tp1435
a(I0
I4
tp1436
a(I1
I1
tp1437
a(I1
I2
tp1438
a(I1
I3
tp1439
a(I2
I2
tp1440
a(I2
I3
tp1441
a(I3
I4
tp1442
a(I4
I4
tp1443
aI00
(dp1444
(dp1445
(dp1446
tp1447
Rp1448
(dp1449
bag1
(I5
(lp1450
(I0
I3
tp1451
a(I0
I4
tp1452
a(I0
I4
tp1453
a(I0
I4
tp1454
a(I1
I1
tp1455
a(I1
I2
tp1456
a(I1
I3
tp1457
a(I2
I2
tp1458
a(I2
I3
tp1459
a(I3
I3
tp1460
a(I3
I4
tp1461
aI00
(dp1462
(dp1463
(dp1464
tp1465
Rp1466
(dp1467
bag1
(I5
(lp1468
(I0
I3
tp1469
a(I0
I4
tp1470
a(I0
I4
tp1471
a(I0
I4
tp1472
a(I1
I1
tp1473
a(I1
I2
tp1474
a(I1
I3
tp1475
a(I2
I2
tp1476
a(I2
I2
tp1477
a(I2
I3
tp1478
a(I3
I4
tp1479
aI00
(dp1480
(dp1481
(dp1482
tp1483
Rp1484
(dp1485
bag1
(I5
(lp1486
(I0
I3
tp1487
a(I0
I4
tp1488
a(I0
I4
tp1489
a(I0
I4
tp1490
a(I1
I1
tp1491
a(I1
I2
tp1492
a(I1
I2
tp1493
a(I2
I2
tp1494
a(I2
I3
tp1495
a(I2
I3
tp1496
a(I3
I4
tp1497
aI00
(dp1498
(dp1499
(dp1500
tp1501
Rp1502
(dp1503
bag1
(I5
(lp1504
(I0
I3
tp1505
a(I0
I3
tp1506
a(I0
I4
tp1507
a(I0
I4
tp1508
a(I1
I3
tp1509
a(I1
I3
tp1510
a(I1
I4
tp1511
a(I1
I4
tp1512
a(I2
I2
tp1513
a(I2
I4
tp1514
a(I2
I4
tp1515
aI00
(dp1516
(dp1517
(dp1518
tp1519
Rp1520
(dp1521
bag1
(I5
(lp1522
(I0
I3
tp1523
a(I0
I3
tp1524
a(I0
I4
tp1525
a(I0
I4
tp1526
a(I1
I2
tp1527
a(I1
I3
tp1528
a(I1
I4
tp1529
a(I1
I4
tp1530
a(I2
I3
tp1531
a(I2
I4
tp1532
a(I2
I4
tp1533
aI00
(dp1534
(dp1535
(dp1536
tp1537
Rp1538
(dp1539
bag1
(I5
(lp1540
(I0
I3
tp1541
a(I0
I3
tp1542
a(I0
I4
tp1543
a(I0
I4
tp1544
a(I1
I2
tp1545
a(I1
I3
tp1546
a(I1
I4
tp1547
a(I1
I4
tp1548
a(I2
I2
tp1549
a(I2
I4
tp1550
a(I3
I4
tp1551
aI00
(dp1552
(dp1553
(dp1554
tp1555
Rp1556
(dp1557
bag1
(I5
(lp1558
(I0
I3
tp1559
a(I0
I3
tp1560
a(I0
I4
tp1561
a(I0
I4
tp1562
a(I1
I2
tp1563
a(I1
I3
tp1564
a(I1
I4
tp1565
a(I1
I4
tp1566
a(I2
I2
tp1567
a(I2
I3
tp1568
a(I4
I4
tp1569
aI00
(dp1570
(dp1571
(dp1572
tp1573
Rp1574
(dp1575
bag1
(I5
(lp1576
(I0
I3
tp1577
a(I0
I3
tp1578
a(I0
I4
tp1579
a(I0
I4
tp1580
a(I1
I2
tp1581
a(I1
I3
tp1582
a(I1
I4
tp1583
a(I1
I4
tp1584
a(I2
I2
tp1585
a(I2
I3
tp1586
a(I3
I3
tp1587
aI00
(dp1588
(dp1589
(dp1590
tp1591
Rp1592
(dp1593
bag1
(I5
(lp1594
(I0
I3
tp1595
a(I0
I3
tp1596
a(I0
I4
tp1597
a(I0
I4
tp1598
a(I1
I2
tp1599
a(I1
I3
tp1600
a(I1
I4
tp1601
a(I1
I4
tp1602
a(I2
I2
tp1603
a(I2
I2
tp1604
a(I2
I3
tp1605
aI00
(dp1606
(dp1607
(dp1608
tp1609
Rp1610
(dp1611
bag1
(I5
(lp1612
(I0
I3
tp1613
a(I0
I3
tp1614
a(I0
I4
tp1615
a(I0
I4
tp1616
a(I1
I2
tp1617
a(I1
I2
tp1618
a(I1
I4
tp1619
a(I1
I4
tp1620
a(I2
I4
tp1621
a(I2
I4
tp1622
a(I3
I3
tp1623
aI00
(dp1624
(dp1625
(dp1626
tp1627
Rp1628
(dp1629
bag1
(I5
(lp1630
(I0
I3
tp1631
a(I0
I3
tp1632
a(I0
I4
tp1633
a(I0
I4
tp1634
a(I1
I2
tp1635
a(I1
I2
tp1636
a(I1
I4
tp1637
a(I1
I4
tp1638
a(I2
I3
tp1639
a(I2
I4
tp1640
a(I3
I4
tp1641
aI00
(dp1642
(dp1643
(dp1644
tp1645
Rp1646
(dp1647
bag1
(I5
(lp1648
(I0
I3
tp1649
a(I0
I3
tp1650
a(I0
I4
tp1651
a(I0
I4
tp1652
a(I1
I2
tp1653
a(I1
I2
tp1654
a(I1
I4
tp1655
a(I1
I4
tp1656
a(I2
I3
tp1657
a(I2
I3
tp1658
a(I4
I4
tp1659
aI00
(dp1660
(dp1661
(dp1662
tp1663
Rp1664
(dp1665
bag1
(I5
(lp1666
(I0
I3
tp1667
a(I0
I3
tp1668
a(I0
I4
tp1669
a(I0
I4
tp1670
a(I1
I2
tp1671
a(I1
I2
tp1672
a(I1
I4
tp1673
a(I1
I4
tp1674
a(I2
I2
tp1675
a(I3
I3
tp1676
a(I4
I4
tp1677
aI00
(dp1678
(dp1679
(dp1680
tp1681
Rp1682
(dp1683
bag1
(I5
(lp1684
(I0
I3
tp1685
a(I0
I3
tp1686
a(I0
I4
tp1687
a(I0
I4
tp1688
a(I1
I2
tp1689
a(I1
I2
tp1690
a(I1
I4
tp1691
a(I1
I4
tp1692
a(I2
I2
tp1693
a(I3
I3
tp1694
a(I3
I3
tp1695
aI00
(dp1696
(dp1697
(dp1698
tp1699
Rp1700
(dp1701
bag1
(I5
(lp1702
(I0
I3
tp1703
a(I0
I3
tp1704
a(I0
I4
tp1705
a(I0
I4
tp1706
a(I1
I2
tp1707
a(I1
I2
tp1708
a(I1
I3
tp1709
a(I1
I4
tp1710
a(I2
I3
tp1711
a(I2
I4
tp1712
a(I4
I4
tp1713
aI00
(dp1714
(dp1715
(dp1716
tp1717
Rp1718
(dp1719
bag1
(I5
(lp1720
(I0
I3
tp1721
a(I0
I3
tp1722
a(I0
I4
tp1723
a(I0
I4
tp1724
a(I1
I2
tp1725
a(I1
I2
tp1726
a(I1
I3
tp1727
a(I1
I4
tp1728
a(I2
I2
tp1729
a(I3
I4
tp1730
a(I4
I4
tp1731
aI00
(dp1732
(dp1733
(dp1734
tp1735
Rp1736
(dp1737
bag1
(I5
(lp1738
(I0
I3
tp1739
a(I0
I3
tp1740
a(I0
I4
tp1741
a(I0
I4
tp1742
a(I1
I2
tp1743
a(I1
I2
tp1744
a(I1
I3
tp1745
a(I1
I4
tp1746
a(I2
I2
tp1747
a(I2
I3
tp1748
a(I2
I4
tp1749
aI00
(dp1750
(dp1751
(dp1752
tp1753
Rp1754
(dp1755
bag1
(I5
(lp1756
(I0
I3
tp1757
a(I0
I3
tp1758
a(I0
I4
tp1759
a(I0
I4
tp1760
a(I1
I2
tp1761
a(I1
I2
tp1762
a(I1
I3
tp1763
a(I1
I4
tp1764
a(I2
I2
tp1765
a(I2
I2
tp1766
a(I3
I4
tp1767
aI00
(dp1768
(dp1769
(dp1770
tp1771
Rp1772
(dp1773
bag1
(I5
(lp1774
(I0
I3
tp1775
a(I0
I3
tp1776
a(I0
I4
tp1777
a(I0
I4
tp1778
a(I1
I1
tp1779
a(I1
I4
tp1780
a(I1
I4
tp1781
a(I2
I2
tp1782
a(I2
I4
tp1783
a(I2
I4
tp1784
a(I3
I3
tp1785
aI00
(dp1786
(dp1787
(dp1788
tp1789
Rp1790
(dp1791
bag1
(I5
(lp1792
(I0
I3
tp1793
a(I0
I3
tp1794
a(I0
I4
tp1795
a(I0
I4
tp1796
a(I1
I1
tp1797
a(I1
I4
tp1798
a(I1
I4
tp1799
a(I2
I2
tp1800
a(I2
I3
tp1801
a(I2
I4
tp1802
a(I3
I4
tp1803
aI00
(dp1804
(dp1805
(dp1806
tp1807
Rp1808
(dp1809
bag1
(I5
(lp1810
(I0
I3
tp1811
a(I0
I3
tp1812
a(I0
I4
tp1813
a(I0
I4
tp1814
a(I1
I1
tp1815
a(I1
I4
tp1816
a(I1
I4
tp1817
a(I2
I2
tp1818
a(I2
I3
tp1819
a(I2
I3
tp1820
a(I4
I4
tp1821
aI00
(dp1822
(dp1823
(dp1824
tp1825
Rp1826
(dp1827
bag1
(I5
(lp1828
(I0
I3
tp1829
a(I0
I3
tp1830
a(I0
I4
tp1831
a(I0
I4
tp1832
a(I1
I1
tp1833
a(I1
I3
tp1834
a(I1
I4
tp1835
a(I2
I2
tp1836
a(I2
I3
tp1837
a(I2
I4
tp1838
a(I4
I4
tp1839
aI00
(dp1840
(dp1841
(dp1842
tp1843
Rp1844
(dp1845
bag1
(I5
(lp1846
(I0
I3
tp1847
a(I0
I3
tp1848
a(I0
I4
tp1849
a(I0
I4
tp1850
a(I1
I1
tp1851
a(I1
I3
tp1852
a(I1
I4
tp1853
a(I2
I2
tp1854
a(I2
I2
tp1855
a(I2
I3
tp1856
a(I2
I4
tp1857
aI00
(dp1858
(dp1859
(dp1860
tp1861
Rp1862
(dp1863
bag1
(I5
(lp1864
(I0
I3
tp1865
a(I0
I3
tp1866
a(I0
I4
tp1867
a(I0
I4
tp1868
a(I1
I1
tp1869
a(I1
I2
tp1870
a(I1
I4
tp1871
a(I2
I2
tp1872
a(I2
I4
tp1873
a(I3
I4
tp1874
a(I3
I4
tp1875
aI00
(dp1876
(dp1877
(dp1878
tp1879
Rp1880
(dp1881
bag1
(I5
(lp1882
(I0
I3
tp1883
a(I0
I3
tp1884
a(I0
I4
tp1885
a(I0
I4
tp1886
a(I1
I1
tp1887
a(I1
I2
tp1888
a(I1
I4
tp1889
a(I2
I2
tp1890
a(I2
I4
tp1891
a(I3
I3
tp1892
a(I4
I4
tp1893
aI00
(dp1894
(dp1895
(dp1896
tp1897
Rp1898
(dp1899
bag1
(I5
(lp1900
(I0
I3
tp1901
a(I0
I3
tp1902
a(I0
I4
tp1903
a(I0
I4
tp1904
a(I1
I1
tp1905
a(I1
I2
tp1906
a(I1
I4
tp1907
a(I2
I2
tp1908
a(I2
I4
tp1909
a(I3
I3
tp1910
a(I3
I3
tp1911
aI00
(dp1912
(dp1913
(dp1914
tp1915
Rp1916
(dp1917
bag1
(I5
(lp1918
(I0
I3
tp1919
a(I0
I3
tp1920
a(I0
I4
tp1921
a(I0
I4
tp1922
a(I1
I1
tp1923
a(I1
I2
tp1924
a(I1
I4
tp1925
a(I2
I2
tp1926
a(I2
I3
tp1927
a(I3
I4
tp1928
a(I4
I4
tp1929
aI00
(dp1930
(dp1931
(dp1932
tp1933
Rp1934
(dp1935
bag1
(I5
(lp1936
(I0
I3
tp1937
a(I0
I3
tp1938
a(I0
I4
tp1939
a(I0
I4
tp1940
a(I1
I1
tp1941
a(I1
I2
tp1942
a(I1
I4
tp1943
a(I2
I2
tp1944
a(I2
I2
tp1945
a(I2
I4
tp1946
a(I3
I3
tp1947
aI00
(dp1948
(dp1949
(dp1950
tp1951
Rp1952
(dp1953
bag1
(I5
(lp1954
(I0
I3
tp1955
a(I0
I3
tp1956
a(I0
I4
tp1957
a(I0
I4
tp1958
a(I1
I1
tp1959
a(I1
I2
tp1960
a(I1
I4
tp1961
a(I2
I2
tp1962
a(I2
I2
tp1963
a(I2
I3
tp1964
a(I3
I4
tp1965
aI00
(dp1966
(dp1967
(dp1968
tp1969
Rp1970
(dp1971
bag1
(I5
(lp1972
(I0
I3
tp1973
a(I0
I3
tp1974
a(I0
I4
tp1975
a(I0
I4
tp1976
a(I1
I1
tp1977
a(I1
I2
tp1978
a(I1
I2
tp1979
a(I2
I2
tp1980
a(I2
I3
tp1981
a(I2
I4
tp1982
a(I3
I4
tp1983
aI00
(dp1984
(dp1985
(dp1986
tp1987
Rp1988
(dp1989
bag1
(I5
(lp1990
(I0
I2
tp1991
a(I0
I3
tp1992
a(I0
I4
tp1993
a(I0
I4
tp1994
a(I1
I2
tp1995
a(I1
I3
tp1996
a(I1
I4
tp1997
a(I1
I4
tp1998
a(I2
I4
tp1999
a(I2
I4
tp2000
a(I3
I3
tp2001
aI00
(dp2002
(dp2003
(dp2004
tp2005
Rp2006
(dp2007
bag1
(I5
(lp2008
(I0
I2
tp2009
a(I0
I3
tp2010
a(I0
I4
tp2011
a(I0
I4
tp2012
a(I1
I2
tp2013
a(I1
I3
tp2014
a(I1
I4
tp2015
a(I1
I4
tp2016
a(I2
I3
tp2017
a(I2
I4
tp2018
a(I3
I4
tp2019
aI00
(dp2020
(dp2021
(dp2022
tp2023
Rp2024
(dp2025
bag1
(I5
(lp2026
(I0
I2
tp2027
a(I0
I3
tp2028
a(I0
I4
tp2029
a(I0
I4
tp2030
a(I1
I2
tp2031
a(I1
I3
tp2032
a(I1
I4
tp2033
a(I1
I4
tp2034
a(I2
I3
tp2035
a(I2
I3
tp2036
a(I4
I4
tp2037
aI00
(dp2038
(dp2039
(dp2040
tp2041
Rp2042
(dp2043
bag1
(I5
(lp2044
(I0
I2
tp2045
a(I0
I3
tp2046
a(I0
I4
tp2047
a(I0
I4
tp2048
a(I1
I2
tp2049
a(I1
I3
tp2050
a(I1
I4
tp2051
a(I1
I4
tp2052
a(I2
I2
tp2053
a(I3
I3
tp2054
a(I4
I4
tp2055
aI00
(dp2056
(dp2057
(dp2058
tp2059
Rp2060
(dp2061
bag1
(I5
(lp2062
(I0
I2
tp2063
a(I0
I3
tp2064
a(I0
I4
tp2065
a(I0
I4
tp2066
a(I1
I2
tp2067
a(I1
I3
tp2068
a(I1
I3
tp2069
a(I1
I4
tp2070
a(I2
I4
tp2071
a(I2
I4
tp2072
a(I3
I4
tp2073
aI00
(dp2074
(dp2075
(dp2076
tp2077
Rp2078
(dp2079
bag1
(I5
(lp2080
(I0
I2
tp2081
a(I0
I3
tp2082
a(I0
I4
tp2083
a(I0
I4
tp2084
a(I1
I2
tp2085
a(I1
I3
tp2086
a(I1
I3
tp2087
a(I1
I4
tp2088
a(I2
I3
tp2089
a(I2
I4
tp2090
a(I4
I4
tp2091
aI00
(dp2092
(dp2093
(dp2094
tp2095
Rp2096
(dp2097
bag1
(I5
(lp2098
(I0
I2
tp2099
a(I0
I3
tp2100
a(I0
I4
tp2101
a(I0
I4
tp2102
a(I1
I2
tp2103
a(I1
I3
tp2104
a(I1
I3
tp2105
a(I1
I4
tp2106
a(I2
I2
tp2107
a(I3
I4
tp2108
a(I4
I4
tp2109
aI00
(dp2110
(dp2111
(dp2112
tp2113
Rp2114
(dp2115
bag1
(I5
(lp2116
(I0
I2
tp2117
a(I0
I3
tp2118
a(I0
I4
tp2119
a(I0
I4
tp2120
a(I1
I2
tp2121
a(I1
I3
tp2122
a(I1
I3
tp2123
a(I1
I4
tp2124
a(I2
I2
tp2125
a(I2
I3
tp2126
a(I2
I4
tp2127
aI00
(dp2128
(dp2129
(dp2130
tp2131
Rp2132
(dp2133
bag1
(I5
(lp2134
(I0
I2
tp2135
a(I0
I3
tp2136
a(I0
I4
tp2137
a(I0
I4
tp2138
a(I1
I2
tp2139
a(I1
I3
tp2140
a(I1
I3
tp2141
a(I1
I4
tp2142
a(I2
I2
tp2143
a(I2
I2
tp2144
a(I3
I4
tp2145
aI00
(dp2146
(dp2147
(dp2148
tp2149
Rp2150
(dp2151
bag1
(I5
(lp2152
(I0
I2
tp2153
a(I0
I3
tp2154
a(I0
I4
tp2155
a(I0
I4
tp2156
a(I1
I1
tp2157
a(I1
I4
tp2158
a(I1
I4
tp2159
a(I2
I3
tp2160
a(I2
I4
tp2161
a(I2
I4
tp2162
a(I3
I3
tp2163
aI00
(dp2164
(dp2165
(dp2166
tp2167
Rp2168
(dp2169
bag1
(I5
(lp2170
(I0
I2
tp2171
a(I0
I3
tp2172
a(I0
I4
tp2173
a(I0
I4
tp2174
a(I1
I1
tp2175
a(I1
I4
tp2176
a(I1
I4
tp2177
a(I2
I3
tp2178
a(I2
I3
tp2179
a(I2
I4
tp2180
a(I3
I4
tp2181
aI00
(dp2182
(dp2183
(dp2184
tp2185
Rp2186
(dp2187
bag1
(I5
(lp2188
(I0
I2
tp2189
a(I0
I3
tp2190
a(I0
I4
tp2191
a(I0
I4
tp2192
a(I1
I1
tp2193
a(I1
I4
tp2194
a(I1
I4
tp2195
a(I2
I2
tp2196
a(I2
I4
tp2197
a(I3
I3
tp2198
a(I3
I4
tp2199
aI00
(dp2200
(dp2201
(dp2202
tp2203
Rp2204
(dp2205
bag1
(I5
(lp2206
(I0
I2
tp2207
a(I0
I3
tp2208
a(I0
I4
tp2209
a(I0
I4
tp2210
a(I1
I1
tp2211
a(I1
I4
tp2212
a(I1
I4
tp2213
a(I2
I2
tp2214
a(I2
I3
tp2215
a(I3
I3
tp2216
a(I4
I4
tp2217
aI00
(dp2218
(dp2219
(dp2220
tp2221
Rp2222
(dp2223
bag1
(I5
(lp2224
(I0
I2
tp2225
a(I0
I3
tp2226
a(I0
I4
tp2227
a(I0
I4
tp2228
a(I1
I1
tp2229
a(I1
I3
tp2230
a(I1
I4
tp2231
a(I2
I3
tp2232
a(I2
I4
tp2233
a(I2
I4
tp2234
a(I3
I4
tp2235
aI00
(dp2236
(dp2237
(dp2238
tp2239
Rp2240
(dp2241
bag1
(I5
(lp2242
(I0
I2
tp2243
a(I0
I3
tp2244
a(I0
I4
tp2245
a(I0
I4
tp2246
a(I1
I1
tp2247
a(I1
I3
tp2248
a(I1
I4
tp2249
a(I2
I3
tp2250
a(I2
I3
tp2251
a(I2
I4
tp2252
a(I4
I4
tp2253
aI00
(dp2254
(dp2255
(dp2256
tp2257
Rp2258
(dp2259
bag1
(I5
(lp2260
(I0
I2
tp2261
a(I0
I3
tp2262
a(I0
I4
tp2263
a(I0
I4
tp2264
a(I1
I1
tp2265
a(I1
I3
tp2266
a(I1
I4
tp2267
a(I2
I2
tp2268
a(I2
I4
tp2269
a(I3
I4
tp2270
a(I3
I4
tp2271
aI00
(dp2272
(dp2273
(dp2274
tp2275
Rp2276
(dp2277
bag1
(I5
(lp2278
(I0
I2
tp2279
a(I0
I3
tp2280
a(I0
I4
tp2281
a(I0
I4
tp2282
a(I1
I1
tp2283
a(I1
I3
tp2284
a(I1
I4
tp2285
a(I2
I2
tp2286
a(I2
I4
tp2287
a(I3
I3
tp2288
a(I4
I4
tp2289
aI00
(dp2290
(dp2291
(dp2292
tp2293
Rp2294
(dp2295
bag1
(I5
(lp2296
(I0
I2
tp2297
a(I0
I3
tp2298
a(I0
I4
tp2299
a(I0
I4
tp2300
a(I1
I1
tp2301
a(I1
I3
tp2302
a(I1
I4
tp2303
a(I2
I2
tp2304
a(I2
I4
tp2305
a(I3
I3
tp2306
a(I3
I3
tp2307
aI00
(dp2308
(dp2309
(dp2310
tp2311
Rp2312
(dp2313
bag1
(I5
(lp2314
(I0
I2
tp2315
a(I0
I3
tp2316
a(I0
I4
tp2317
a(I0
I4
tp2318
a(I1
I1
tp2319
a(I1
I3
tp2320
a(I1
I4
tp2321
a(I2
I2
tp2322
a(I2
I3
tp2323
a(I3
I4
tp2324
a(I4
I4
tp2325
aI00
(dp2326
(dp2327
(dp2328
tp2329
Rp2330
(dp2331
bag1
(I5
(lp2332
(I0
I2
tp2333
a(I0
I3
tp2334
a(I0
I4
tp2335
a(I0
I4
tp2336
a(I1
I1
tp2337
a(I1
I3
tp2338
a(I1
I4
tp2339
a(I2
I2
tp2340
a(I2
I3
tp2341
a(I3
I3
tp2342
a(I3
I4
tp2343
aI00
(dp2344
(dp2345
(dp2346
tp2347
Rp2348
(dp2349
bag1
(I5
(lp2350
(I0
I2
tp2351
a(I0
I3
tp2352
a(I0
I4
tp2353
a(I0
I4
tp2354
a(I1
I1
tp2355
a(I1
I3
tp2356
a(I1
I4
tp2357
a(I2
I2
tp2358
a(I2
I2
tp2359
a(I2
I4
tp2360
a(I3
I3
tp2361
aI00
(dp2362
(dp2363
(dp2364
tp2365
Rp2366
(dp2367
bag1
(I5
(lp2368
(I0
I2
tp2369
a(I0
I3
tp2370
a(I0
I4
tp2371
a(I0
I4
tp2372
a(I1
I1
tp2373
a(I1
I3
tp2374
a(I1
I4
tp2375
a(I2
I2
tp2376
a(I2
I2
tp2377
a(I2
I3
tp2378
a(I3
I4
tp2379
aI00
(dp2380
(dp2381
(dp2382
tp2383
Rp2384
(dp2385
bag1
(I5
(lp2386
(I0
I2
tp2387
a(I0
I3
tp2388
a(I0
I4
tp2389
a(I0
I4
tp2390
a(I1
I1
tp2391
a(I1
I3
tp2392
a(I1
I3
tp2393
a(I2
I3
tp2394
a(I2
I4
tp2395
a(I2
I4
tp2396
a(I4
I4
tp2397
aI00
(dp2398
(dp2399
(dp2400
tp2401
Rp2402
(dp2403
bag1
(I5
(lp2404
(I0
I2
tp2405
a(I0
I3
tp2406
a(I0
I4
tp2407
a(I0
I4
tp2408
a(I1
I1
tp2409
a(I1
I3
tp2410
a(I1
I3
tp2411
a(I2
I2
tp2412
a(I2
I4
tp2413
a(I3
I4
tp2414
a(I4
I4
tp2415
aI00
(dp2416
(dp2417
(dp2418
tp2419
Rp2420
(dp2421
bag1
(I5
(lp2422
(I0
I2
tp2423
a(I0
I3
tp2424
a(I0
I4
tp2425
a(I0
I4
tp2426
a(I1
I1
tp2427
a(I1
I3
tp2428
a(I1
I3
tp2429
a(I2
I2
tp2430
a(I2
I4
tp2431
a(I3
I3
tp2432
a(I3
I4
tp2433
aI00
(dp2434
(dp2435
(dp2436
tp2437
Rp2438
(dp2439
bag1
(I5
(lp2440
(I0
I2
tp2441
a(I0
I3
tp2442
a(I0
I4
tp2443
a(I0
I4
tp2444
a(I1
I1
tp2445
a(I1
I3
tp2446
a(I1
I3
tp2447
a(I2
I2
tp2448
a(I2
I3
tp2449
a(I4
I4
tp2450
a(I4
I4
tp2451
aI00
(dp2452
(dp2453
(dp2454
tp2455
Rp2456
(dp2457
bag1
(I5
(lp2458
(I0
I2
tp2459
a(I0
I3
tp2460
a(I0
I4
tp2461
a(I0
I4
tp2462
a(I1
I1
tp2463
a(I1
I3
tp2464
a(I1
I3
tp2465
a(I2
I2
tp2466
a(I2
I3
tp2467
a(I3
I3
tp2468
a(I4
I4
tp2469
aI00
(dp2470
(dp2471
(dp2472
tp2473
Rp2474
(dp2475
bag1
(I5
(lp2476
(I0
I2
tp2477
a(I0
I3
tp2478
a(I0
I4
tp2479
a(I0
I4
tp2480
a(I1
I1
tp2481
a(I1
I3
tp2482
a(I1
I3
tp2483
a(I2
I2
tp2484
a(I2
I2
tp2485
a(I2
I4
tp2486
a(I3
I4
tp2487
aI00
(dp2488
(dp2489
(dp2490
tp2491
Rp2492
(dp2493
bag1
(I5
(lp2494
(I0
I2
tp2495
a(I0
I3
tp2496
a(I0
I4
tp2497
a(I0
I4
tp2498
a(I1
I1
tp2499
a(I1
I3
tp2500
a(I1
I3
tp2501
a(I2
I2
tp2502
a(I2
I2
tp2503
a(I2
I3
tp2504
a(I4
I4
tp2505
aI00
(dp2506
(dp2507
(dp2508
tp2509
Rp2510
(dp2511
bag1
(I5
(lp2512
(I0
I2
tp2513
a(I0
I3
tp2514
a(I0
I4
tp2515
a(I0
I4
tp2516
a(I1
I1
tp2517
a(I1
I2
tp2518
a(I1
I3
tp2519
a(I2
I4
tp2520
a(I2
I4
tp2521
a(I3
I3
tp2522
a(I4
I4
tp2523
aI00
(dp2524
(dp2525
(dp2526
tp2527
Rp2528
(dp2529
bag1
(I5
(lp2530
(I0
I2
tp2531
a(I0
I3
tp2532
a(I0
I4
tp2533
a(I0
I4
tp2534
a(I1
I1
tp2535
a(I1
I2
tp2536
a(I1
I3
tp2537
a(I2
I3
tp2538
a(I2
I4
tp2539
a(I3
I4
tp2540
a(I4
I4
tp2541
aI00
(dp2542
(dp2543
(dp2544
tp2545
Rp2546
(dp2547
bag1
(I5
(lp2548
(I0
I2
tp2549
a(I0
I3
tp2550
a(I0
I4
tp2551
a(I0
I4
tp2552
a(I1
I1
tp2553
a(I1
I2
tp2554
a(I1
I3
tp2555
a(I2
I3
tp2556
a(I2
I4
tp2557
a(I3
I3
tp2558
a(I3
I4
tp2559
aI00
(dp2560
(dp2561
(dp2562
tp2563
Rp2564
(dp2565
bag1
(I5
(lp2566
(I0
I2
tp2567
a(I0
I3
tp2568
a(I0
I4
tp2569
a(I0
I4
tp2570
a(I1
I1
tp2571
a(I1
I2
tp2572
a(I1
I3
tp2573
a(I2
I3
tp2574
a(I2
I3
tp2575
a(I4
I4
tp2576
a(I4
I4
tp2577
aI00
(dp2578
(dp2579
(dp2580
tp2581
Rp2582
(dp2583
bag1
(I5
(lp2584
(I0
I2
tp2585
a(I0
I3
tp2586
a(I0
I4
tp2587
a(I0
I4
tp2588
a(I1
I1
tp2589
a(I1
I2
tp2590
a(I1
I3
tp2591
a(I2
I2
tp2592
a(I3
I3
tp2593
a(I4
I4
tp2594
a(I4
I4
tp2595
aI00
(dp2596
(dp2597
(dp2598
tp2599
Rp2600
(dp2601
bag1
(I5
(lp2602
(I0
I2
tp2603
a(I0
I3
tp2604
a(I0
I4
tp2605
a(I0
I4
tp2606
a(I1
I1
tp2607
a(I1
I2
tp2608
a(I1
I3
tp2609
a(I2
I2
tp2610
a(I3
I3
tp2611
a(I3
I3
tp2612
a(I4
I4
tp2613
aI00
(dp2614
(dp2615
(dp2616
tp2617
Rp2618
(dp2619
bag1
(I5
(lp2620
(I0
I2
tp2621
a(I0
I3
tp2622
a(I0
I4
tp2623
a(I0
I4
tp2624
a(I1
I1
tp2625
a(I1
I1
tp2626
a(I1
I2
tp2627
a(I1
I3
tp2628
a(I2
I3
tp2629
a(I2
I4
tp2630
a(I3
I4
tp2631
aI00
(dp2632
(dp2633
(dp2634
tp2635
Rp2636
(dp2637
bag1
(I5
(lp2638
(I0
I2
tp2639
a(I0
I3
tp2640
a(I0
I4
tp2641
a(I0
I4
tp2642
a(I1
I1
tp2643
a(I1
I1
tp2644
a(I1
I2
tp2645
a(I1
I3
tp2646
a(I2
I2
tp2647
a(I3
I3
tp2648
a(I4
I4
tp2649
aI00
(dp2650
(dp2651
(dp2652
tp2653
Rp2654
(dp2655
bag1
(I5
(lp2656
(I0
I1
tp2657
a(I0
I2
tp2658
a(I0
I3
tp2659
a(I0
I4
tp2660
a(I1
I2
tp2661
a(I1
I3
tp2662
a(I1
I4
tp2663
a(I2
I3
tp2664
a(I2
I4
tp2665
a(I3
I4
tp2666
a(I4
I4
tp2667
aI00
(dp2668
(dp2669
(dp2670
tp2671
Rp2672
(dp2673
bag1
(I5
(lp2674
(I0
I1
tp2675
a(I0
I2
tp2676
a(I0
I3
tp2677
a(I0
I4
tp2678
a(I1
I2
tp2679
a(I1
I3
tp2680
a(I1
I4
tp2681
a(I2
I2
tp2682
a(I3
I3
tp2683
a(I4
I4
tp2684
a(I4
I4
tp2685
aI00
(dp2686
(dp2687
(dp2688
tp2689
Rp2690
(dp2691
bag1
(I5
(lp2692
(I0
I1
tp2693
a(I0
I2
tp2694
a(I0
I3
tp2695
a(I0
I4
tp2696
a(I1
I1
tp2697
a(I1
I4
tp2698
a(I2
I2
tp2699
a(I2
I4
tp2700
a(I3
I3
tp2701
a(I3
I4
tp2702
a(I4
I4
tp2703
aI00
(dp2704
(dp2705
(dp2706
tp2707
Rp2708
(dp2709
bag1
(I5
(lp2710
(I0
I1
tp2711
a(I0
I2
tp2712
a(I0
I3
tp2713
a(I0
I4
tp2714
a(I1
I1
tp2715
a(I1
I4
tp2716
a(I2
I2
tp2717
a(I2
I3
tp2718
a(I3
I3
tp2719
a(I4
I4
tp2720
a(I4
I4
tp2721
aI00
(dp2722
(dp2723
(dp2724
tp2725
Rp2726
(dp2727
bag1
(I5
(lp2728
(I0
I1
tp2729
a(I0
I2
tp2730
a(I0
I3
tp2731
a(I0
I3
tp2732
a(I0
I4
tp2733
a(I0
I4
tp2734
a(I1
I1
tp2735
a(I1
I2
tp2736
a(I2
I2
tp2737
a(I3
I3
tp2738
a(I4
I4
tp2739
aI00
(dp2740
(dp2741
(dp2742
tp2743
Rp2744
(dp2745
bag1
(I5
(lp2746
(I0
I0
tp2747
a(I0
I4
tp2748
a(I0
I4
tp2749
a(I1
I1
tp2750
a(I1
I3
tp2751
a(I1
I4
tp2752
a(I2
I2
tp2753
a(I2
I3
tp2754
a(I2
I4
tp2755
a(I3
I3
tp2756
a(I4
I4
tp2757
aI00
(dp2758
(dp2759
(dp2760
tp2761
Rp2762
(dp2763
bag1
(I5
(lp2764
(I0
I0
tp2765
a(I0
I3
tp2766
a(I0
I4
tp2767
a(I1
I1
tp2768
a(I1
I2
tp2769
a(I1
I4
tp2770
a(I2
I2
tp2771
a(I2
I4
tp2772
a(I3
I3
tp2773
a(I3
I4
tp2774
a(I4
I4
tp2775
aI00
(dp2776
(dp2777
(dp2778
tp2779
Rp2780
(dp2781
bag1
(I5
(lp2782
(I0
I0
tp2783
a(I0
I3
tp2784
a(I0
I4
tp2785
a(I1
I1
tp2786
a(I1
I2
tp2787
a(I1
I4
tp2788
a(I2
I2
tp2789
a(I2
I3
tp2790
a(I3
I3
tp2791
a(I4
I4
tp2792
a(I4
I4
tp2793
aI00
(dp2794
(dp2795
(dp2796
tp2797
Rp2798
(dp2799
ba.