(lp0
(lp1
(I0
I8
tp2
a(I8
I0
tp3
aa(lp4
(I4
I6
tp5
a(I6
I0
tp6
aa(lp7
(I2
I6
tp8
a(I6
I2
tp9
aa(lp10
(I8
I4
tp11
a(I4
I0
tp12
aa(lp13
(I6
I4
tp14
a(I4
I2
tp15
aa(lp16
(I4
I4
tp17
a(I4
I4
tp18
aa(lp19
(I10
I2
tp20
a(I2
I2
tp21
aa(lp22
(I8
I2
tp23
a(I2
I4
tp24
aa(lp25
(I6
I2
tp26
a(I2
I6
tp27
aa(lp28
(I2
I6
tp29
a(I6
I0
tp30
aa(lp31
(I6
I4
tp32
a(I4
I0
tp33
aa(lp34
(I4
I4
tp35
a(I4
I2
tp36
aa(lp37
(I8
I2
tp38
a(I2
I2
tp39
aa(lp40
(I6
I2
tp41
a(I2
I4
tp42
aa(lp43
(I0
I6
tp44
a(I6
I0
tp45
aa(lp46
(I4
I4
tp47
a(I4
I0
tp48
aa(lp49
(I2
I4
tp50
a(I4
I2
tp51
aa(lp52
(I6
I2
tp53
a(I2
I2
tp54
aa(lp55
(I4
I2
tp56
a(I2
I4
tp57
aa(lp58
(I2
I4
tp59
a(I4
I0
tp60
aa(lp61
(I4
I2
tp62
a(I2
I2
tp63
aa(lp64
(I0
I4
tp65
a(I4
I0
tp66
aa(lp67
(I2
I2
tp68
a(I2
I2
tp69
aa.